
./dhrystone.elf:     file format elf64-littleriscv


Disassembly of section .text.init:

0000000080000000 <_start>:
    80000000:	00000093          	li	ra,0
    80000004:	00000113          	li	sp,0
    80000008:	00000193          	li	gp,0
    8000000c:	00000213          	li	tp,0
    80000010:	00000293          	li	t0,0
    80000014:	00000313          	li	t1,0
    80000018:	00000393          	li	t2,0
    8000001c:	00000413          	li	s0,0
    80000020:	00000493          	li	s1,0
    80000024:	00000513          	li	a0,0
    80000028:	00000593          	li	a1,0
    8000002c:	00000613          	li	a2,0
    80000030:	00000693          	li	a3,0
    80000034:	00000713          	li	a4,0
    80000038:	00000793          	li	a5,0
    8000003c:	00000813          	li	a6,0
    80000040:	00000893          	li	a7,0
    80000044:	00000913          	li	s2,0
    80000048:	00000993          	li	s3,0
    8000004c:	00000a13          	li	s4,0
    80000050:	00000a93          	li	s5,0
    80000054:	00000b13          	li	s6,0
    80000058:	00000b93          	li	s7,0
    8000005c:	00000c13          	li	s8,0
    80000060:	00000c93          	li	s9,0
    80000064:	00000d13          	li	s10,0
    80000068:	00000d93          	li	s11,0
    8000006c:	00000e13          	li	t3,0
    80000070:	00000e93          	li	t4,0
    80000074:	00000f13          	li	t5,0
    80000078:	00000f93          	li	t6,0
    8000007c:	0001e2b7          	lui	t0,0x1e
    80000080:	6002829b          	addiw	t0,t0,1536
    80000084:	3002a073          	csrs	mstatus,t0
    80000088:	00100293          	li	t0,1
    8000008c:	01f29293          	slli	t0,t0,0x1f
    80000090:	0002da63          	bgez	t0,800000a4 <_start+0xa4>
    80000094:	00100513          	li	a0,1
    80000098:	00001297          	auipc	t0,0x1
    8000009c:	f6a2a423          	sw	a0,-152(t0) # 80001000 <tohost>
    800000a0:	ff5ff06f          	j	80000094 <_start+0x94>
    800000a4:	00000297          	auipc	t0,0x0
    800000a8:	04428293          	addi	t0,t0,68 # 800000e8 <trap_entry>
    800000ac:	30529073          	csrw	mtvec,t0
    800000b0:	00004197          	auipc	gp,0x4
    800000b4:	6f018193          	addi	gp,gp,1776 # 800047a0 <__global_pointer$>
    800000b8:	00006217          	auipc	tp,0x6
    800000bc:	78720213          	addi	tp,tp,1927 # 8000683f <_end+0x3f>
    800000c0:	fc027213          	andi	tp,tp,-64
    800000c4:	f1402573          	csrr	a0,mhartid
    800000c8:	00100593          	li	a1,1
    800000cc:	00b57063          	bgeu	a0,a1,800000cc <_start+0xcc>
    800000d0:	00150113          	addi	sp,a0,1
    800000d4:	01111113          	slli	sp,sp,0x11
    800000d8:	00410133          	add	sp,sp,tp
    800000dc:	01151613          	slli	a2,a0,0x11
    800000e0:	00c20233          	add	tp,tp,a2
    800000e4:	3750206f          	j	80002c58 <_init>

00000000800000e8 <trap_entry>:
    800000e8:	ef010113          	addi	sp,sp,-272
    800000ec:	00113423          	sd	ra,8(sp)
    800000f0:	00213823          	sd	sp,16(sp)
    800000f4:	00313c23          	sd	gp,24(sp)
    800000f8:	02413023          	sd	tp,32(sp)
    800000fc:	02513423          	sd	t0,40(sp)
    80000100:	02613823          	sd	t1,48(sp)
    80000104:	02713c23          	sd	t2,56(sp)
    80000108:	04813023          	sd	s0,64(sp)
    8000010c:	04913423          	sd	s1,72(sp)
    80000110:	04a13823          	sd	a0,80(sp)
    80000114:	04b13c23          	sd	a1,88(sp)
    80000118:	06c13023          	sd	a2,96(sp)
    8000011c:	06d13423          	sd	a3,104(sp)
    80000120:	06e13823          	sd	a4,112(sp)
    80000124:	06f13c23          	sd	a5,120(sp)
    80000128:	09013023          	sd	a6,128(sp)
    8000012c:	09113423          	sd	a7,136(sp)
    80000130:	09213823          	sd	s2,144(sp)
    80000134:	09313c23          	sd	s3,152(sp)
    80000138:	0b413023          	sd	s4,160(sp)
    8000013c:	0b513423          	sd	s5,168(sp)
    80000140:	0b613823          	sd	s6,176(sp)
    80000144:	0b713c23          	sd	s7,184(sp)
    80000148:	0d813023          	sd	s8,192(sp)
    8000014c:	0d913423          	sd	s9,200(sp)
    80000150:	0da13823          	sd	s10,208(sp)
    80000154:	0db13c23          	sd	s11,216(sp)
    80000158:	0fc13023          	sd	t3,224(sp)
    8000015c:	0fd13423          	sd	t4,232(sp)
    80000160:	0fe13823          	sd	t5,240(sp)
    80000164:	0ff13c23          	sd	t6,248(sp)
    80000168:	34202573          	csrr	a0,mcause
    8000016c:	341025f3          	csrr	a1,mepc
    80000170:	00010613          	mv	a2,sp
    80000174:	7d8020ef          	jal	ra,8000294c <handle_trap>
    80000178:	34151073          	csrw	mepc,a0
    8000017c:	000022b7          	lui	t0,0x2
    80000180:	8002829b          	addiw	t0,t0,-2048
    80000184:	3002a073          	csrs	mstatus,t0
    80000188:	00813083          	ld	ra,8(sp)
    8000018c:	01013103          	ld	sp,16(sp)
    80000190:	01813183          	ld	gp,24(sp)
    80000194:	02013203          	ld	tp,32(sp)
    80000198:	02813283          	ld	t0,40(sp)
    8000019c:	03013303          	ld	t1,48(sp)
    800001a0:	03813383          	ld	t2,56(sp)
    800001a4:	04013403          	ld	s0,64(sp)
    800001a8:	04813483          	ld	s1,72(sp)
    800001ac:	05013503          	ld	a0,80(sp)
    800001b0:	05813583          	ld	a1,88(sp)
    800001b4:	06013603          	ld	a2,96(sp)
    800001b8:	06813683          	ld	a3,104(sp)
    800001bc:	07013703          	ld	a4,112(sp)
    800001c0:	07813783          	ld	a5,120(sp)
    800001c4:	08013803          	ld	a6,128(sp)
    800001c8:	08813883          	ld	a7,136(sp)
    800001cc:	09013903          	ld	s2,144(sp)
    800001d0:	09813983          	ld	s3,152(sp)
    800001d4:	0a013a03          	ld	s4,160(sp)
    800001d8:	0a813a83          	ld	s5,168(sp)
    800001dc:	0b013b03          	ld	s6,176(sp)
    800001e0:	0b813b83          	ld	s7,184(sp)
    800001e4:	0c013c03          	ld	s8,192(sp)
    800001e8:	0c813c83          	ld	s9,200(sp)
    800001ec:	0d013d03          	ld	s10,208(sp)
    800001f0:	0d813d83          	ld	s11,216(sp)
    800001f4:	0e013e03          	ld	t3,224(sp)
    800001f8:	0e813e83          	ld	t4,232(sp)
    800001fc:	0f013f03          	ld	t5,240(sp)
    80000200:	0f813f83          	ld	t6,248(sp)
    80000204:	11010113          	addi	sp,sp,272
    80000208:	30200073          	mret

Disassembly of section .tohost:

0000000080001000 <tohost>:
	...

0000000080001040 <fromhost>:
	...

Disassembly of section .text:

0000000080002000 <Proc_7>:
    80002000:	0025051b          	addiw	a0,a0,2
    80002004:	00b505bb          	addw	a1,a0,a1
    80002008:	00b62023          	sw	a1,0(a2)
    8000200c:	00008067          	ret

0000000080002010 <Proc_8>:
    80002010:	0056071b          	addiw	a4,a2,5
    80002014:	00171793          	slli	a5,a4,0x1
    80002018:	00e787b3          	add	a5,a5,a4
    8000201c:	00379793          	slli	a5,a5,0x3
    80002020:	00e787b3          	add	a5,a5,a4
    80002024:	00070813          	mv	a6,a4
    80002028:	00261613          	slli	a2,a2,0x2
    8000202c:	00379793          	slli	a5,a5,0x3
    80002030:	00271713          	slli	a4,a4,0x2
    80002034:	00e50533          	add	a0,a0,a4
    80002038:	00c78733          	add	a4,a5,a2
    8000203c:	00d52023          	sw	a3,0(a0)
    80002040:	00d52223          	sw	a3,4(a0)
    80002044:	07052c23          	sw	a6,120(a0)
    80002048:	00e58733          	add	a4,a1,a4
    8000204c:	01072683          	lw	a3,16(a4)
    80002050:	01072a23          	sw	a6,20(a4)
    80002054:	01072c23          	sw	a6,24(a4)
    80002058:	0016869b          	addiw	a3,a3,1
    8000205c:	00d72823          	sw	a3,16(a4)
    80002060:	00052703          	lw	a4,0(a0)
    80002064:	00f587b3          	add	a5,a1,a5
    80002068:	00c787b3          	add	a5,a5,a2
    8000206c:	000015b7          	lui	a1,0x1
    80002070:	00f587b3          	add	a5,a1,a5
    80002074:	fae7aa23          	sw	a4,-76(a5)
    80002078:	00500793          	li	a5,5
    8000207c:	00002717          	auipc	a4,0x2
    80002080:	f4f72e23          	sw	a5,-164(a4) # 80003fd8 <Int_Glob>
    80002084:	00008067          	ret

0000000080002088 <Func_1>:
    80002088:	0ff57513          	andi	a0,a0,255
    8000208c:	0ff5f593          	andi	a1,a1,255
    80002090:	00b50663          	beq	a0,a1,8000209c <Func_1+0x14>
    80002094:	00000513          	li	a0,0
    80002098:	00008067          	ret
    8000209c:	00002797          	auipc	a5,0x2
    800020a0:	f2a78aa3          	sb	a0,-203(a5) # 80003fd1 <Ch_1_Glob>
    800020a4:	00100513          	li	a0,1
    800020a8:	00008067          	ret

00000000800020ac <Func_2>:
    800020ac:	fe010113          	addi	sp,sp,-32
    800020b0:	00813823          	sd	s0,16(sp)
    800020b4:	00913423          	sd	s1,8(sp)
    800020b8:	00113c23          	sd	ra,24(sp)
    800020bc:	00050413          	mv	s0,a0
    800020c0:	00058493          	mv	s1,a1
    800020c4:	0034c583          	lbu	a1,3(s1)
    800020c8:	00244503          	lbu	a0,2(s0)
    800020cc:	fbdff0ef          	jal	ra,80002088 <Func_1>
    800020d0:	0005051b          	sext.w	a0,a0
    800020d4:	fe0518e3          	bnez	a0,800020c4 <Func_2+0x18>
    800020d8:	00048593          	mv	a1,s1
    800020dc:	00040513          	mv	a0,s0
    800020e0:	4d1000ef          	jal	ra,80002db0 <strcmp>
    800020e4:	00000793          	li	a5,0
    800020e8:	00a05a63          	blez	a0,800020fc <Func_2+0x50>
    800020ec:	00a00793          	li	a5,10
    800020f0:	00002717          	auipc	a4,0x2
    800020f4:	eef72423          	sw	a5,-280(a4) # 80003fd8 <Int_Glob>
    800020f8:	00100793          	li	a5,1
    800020fc:	01813083          	ld	ra,24(sp)
    80002100:	01013403          	ld	s0,16(sp)
    80002104:	00813483          	ld	s1,8(sp)
    80002108:	00078513          	mv	a0,a5
    8000210c:	02010113          	addi	sp,sp,32
    80002110:	00008067          	ret

0000000080002114 <Func_3>:
    80002114:	ffe50513          	addi	a0,a0,-2
    80002118:	00153513          	seqz	a0,a0
    8000211c:	00008067          	ret

0000000080002120 <Proc_6>:
    80002120:	fe010113          	addi	sp,sp,-32
    80002124:	00813823          	sd	s0,16(sp)
    80002128:	00913423          	sd	s1,8(sp)
    8000212c:	00050413          	mv	s0,a0
    80002130:	00113c23          	sd	ra,24(sp)
    80002134:	00058493          	mv	s1,a1
    80002138:	fddff0ef          	jal	ra,80002114 <Func_3>
    8000213c:	00040793          	mv	a5,s0
    80002140:	00051463          	bnez	a0,80002148 <Proc_6+0x28>
    80002144:	00300793          	li	a5,3
    80002148:	00f4a023          	sw	a5,0(s1)
    8000214c:	00200793          	li	a5,2
    80002150:	04f40a63          	beq	s0,a5,800021a4 <Proc_6+0x84>
    80002154:	0287e863          	bltu	a5,s0,80002184 <Proc_6+0x64>
    80002158:	00040a63          	beqz	s0,8000216c <Proc_6+0x4c>
    8000215c:	00002717          	auipc	a4,0x2
    80002160:	e7c72703          	lw	a4,-388(a4) # 80003fd8 <Int_Glob>
    80002164:	06400793          	li	a5,100
    80002168:	04e7dc63          	bge	a5,a4,800021c0 <Proc_6+0xa0>
    8000216c:	0004a023          	sw	zero,0(s1)
    80002170:	01813083          	ld	ra,24(sp)
    80002174:	01013403          	ld	s0,16(sp)
    80002178:	00813483          	ld	s1,8(sp)
    8000217c:	02010113          	addi	sp,sp,32
    80002180:	00008067          	ret
    80002184:	00400713          	li	a4,4
    80002188:	fee414e3          	bne	s0,a4,80002170 <Proc_6+0x50>
    8000218c:	01813083          	ld	ra,24(sp)
    80002190:	01013403          	ld	s0,16(sp)
    80002194:	00f4a023          	sw	a5,0(s1)
    80002198:	00813483          	ld	s1,8(sp)
    8000219c:	02010113          	addi	sp,sp,32
    800021a0:	00008067          	ret
    800021a4:	01813083          	ld	ra,24(sp)
    800021a8:	01013403          	ld	s0,16(sp)
    800021ac:	00100793          	li	a5,1
    800021b0:	00f4a023          	sw	a5,0(s1)
    800021b4:	00813483          	ld	s1,8(sp)
    800021b8:	02010113          	addi	sp,sp,32
    800021bc:	00008067          	ret
    800021c0:	01813083          	ld	ra,24(sp)
    800021c4:	01013403          	ld	s0,16(sp)
    800021c8:	00300793          	li	a5,3
    800021cc:	00f4a023          	sw	a5,0(s1)
    800021d0:	00813483          	ld	s1,8(sp)
    800021d4:	02010113          	addi	sp,sp,32
    800021d8:	00008067          	ret

00000000800021dc <debug_printf>:
    800021dc:	fc010113          	addi	sp,sp,-64
    800021e0:	00b13423          	sd	a1,8(sp)
    800021e4:	00c13823          	sd	a2,16(sp)
    800021e8:	00d13c23          	sd	a3,24(sp)
    800021ec:	02e13023          	sd	a4,32(sp)
    800021f0:	02f13423          	sd	a5,40(sp)
    800021f4:	03013823          	sd	a6,48(sp)
    800021f8:	03113c23          	sd	a7,56(sp)
    800021fc:	04010113          	addi	sp,sp,64
    80002200:	00008067          	ret

0000000080002204 <Proc_2>:
    80002204:	00002717          	auipc	a4,0x2
    80002208:	dcd74703          	lbu	a4,-563(a4) # 80003fd1 <Ch_1_Glob>
    8000220c:	04100793          	li	a5,65
    80002210:	00f70463          	beq	a4,a5,80002218 <Proc_2+0x14>
    80002214:	00008067          	ret
    80002218:	00052783          	lw	a5,0(a0)
    8000221c:	00002717          	auipc	a4,0x2
    80002220:	dbc72703          	lw	a4,-580(a4) # 80003fd8 <Int_Glob>
    80002224:	0097879b          	addiw	a5,a5,9
    80002228:	40e787bb          	subw	a5,a5,a4
    8000222c:	00f52023          	sw	a5,0(a0)
    80002230:	00008067          	ret

0000000080002234 <Proc_3>:
    80002234:	84818793          	addi	a5,gp,-1976 # 80003fe8 <Ptr_Glob>
    80002238:	0007b603          	ld	a2,0(a5)
    8000223c:	00060863          	beqz	a2,8000224c <Proc_3+0x18>
    80002240:	00063703          	ld	a4,0(a2)
    80002244:	00e53023          	sd	a4,0(a0)
    80002248:	0007b603          	ld	a2,0(a5)
    8000224c:	01060613          	addi	a2,a2,16
    80002250:	00002597          	auipc	a1,0x2
    80002254:	d885a583          	lw	a1,-632(a1) # 80003fd8 <Int_Glob>
    80002258:	00a00513          	li	a0,10
    8000225c:	da5ff06f          	j	80002000 <Proc_7>

0000000080002260 <Proc_1>:
    80002260:	fe010113          	addi	sp,sp,-32
    80002264:	01213023          	sd	s2,0(sp)
    80002268:	84818913          	addi	s2,gp,-1976 # 80003fe8 <Ptr_Glob>
    8000226c:	00093783          	ld	a5,0(s2)
    80002270:	00813823          	sd	s0,16(sp)
    80002274:	00053403          	ld	s0,0(a0)
    80002278:	0007b703          	ld	a4,0(a5)
    8000227c:	0107b803          	ld	a6,16(a5)
    80002280:	0187b583          	ld	a1,24(a5)
    80002284:	0207b603          	ld	a2,32(a5)
    80002288:	0287b683          	ld	a3,40(a5)
    8000228c:	00913423          	sd	s1,8(sp)
    80002290:	00113c23          	sd	ra,24(sp)
    80002294:	00050493          	mv	s1,a0
    80002298:	0087b503          	ld	a0,8(a5)
    8000229c:	0307b783          	ld	a5,48(a5)
    800022a0:	00e43023          	sd	a4,0(s0)
    800022a4:	0004b703          	ld	a4,0(s1)
    800022a8:	01043823          	sd	a6,16(s0)
    800022ac:	00a43423          	sd	a0,8(s0)
    800022b0:	02f43823          	sd	a5,48(s0)
    800022b4:	00b43c23          	sd	a1,24(s0)
    800022b8:	00500793          	li	a5,5
    800022bc:	02c43023          	sd	a2,32(s0)
    800022c0:	02d43423          	sd	a3,40(s0)
    800022c4:	00f4a823          	sw	a5,16(s1)
    800022c8:	00f42823          	sw	a5,16(s0)
    800022cc:	00e43023          	sd	a4,0(s0)
    800022d0:	00040513          	mv	a0,s0
    800022d4:	f61ff0ef          	jal	ra,80002234 <Proc_3>
    800022d8:	00842783          	lw	a5,8(s0)
    800022dc:	04078c63          	beqz	a5,80002334 <Proc_1+0xd4>
    800022e0:	0004b783          	ld	a5,0(s1)
    800022e4:	01813083          	ld	ra,24(sp)
    800022e8:	01013403          	ld	s0,16(sp)
    800022ec:	0007b883          	ld	a7,0(a5)
    800022f0:	0087b803          	ld	a6,8(a5)
    800022f4:	0107b583          	ld	a1,16(a5)
    800022f8:	0187b603          	ld	a2,24(a5)
    800022fc:	0207b683          	ld	a3,32(a5)
    80002300:	0287b703          	ld	a4,40(a5)
    80002304:	0307b783          	ld	a5,48(a5)
    80002308:	0114b023          	sd	a7,0(s1)
    8000230c:	0104b423          	sd	a6,8(s1)
    80002310:	00b4b823          	sd	a1,16(s1)
    80002314:	00c4bc23          	sd	a2,24(s1)
    80002318:	02d4b023          	sd	a3,32(s1)
    8000231c:	02e4b423          	sd	a4,40(s1)
    80002320:	02f4b823          	sd	a5,48(s1)
    80002324:	00013903          	ld	s2,0(sp)
    80002328:	00813483          	ld	s1,8(sp)
    8000232c:	02010113          	addi	sp,sp,32
    80002330:	00008067          	ret
    80002334:	00c4a503          	lw	a0,12(s1)
    80002338:	00600793          	li	a5,6
    8000233c:	00c40593          	addi	a1,s0,12
    80002340:	00f42823          	sw	a5,16(s0)
    80002344:	dddff0ef          	jal	ra,80002120 <Proc_6>
    80002348:	00093783          	ld	a5,0(s2)
    8000234c:	01042503          	lw	a0,16(s0)
    80002350:	01040613          	addi	a2,s0,16
    80002354:	0007b783          	ld	a5,0(a5)
    80002358:	01813083          	ld	ra,24(sp)
    8000235c:	00813483          	ld	s1,8(sp)
    80002360:	00f43023          	sd	a5,0(s0)
    80002364:	01013403          	ld	s0,16(sp)
    80002368:	00013903          	ld	s2,0(sp)
    8000236c:	00a00593          	li	a1,10
    80002370:	02010113          	addi	sp,sp,32
    80002374:	c8dff06f          	j	80002000 <Proc_7>

0000000080002378 <Proc_4>:
    80002378:	00002717          	auipc	a4,0x2
    8000237c:	c5c70713          	addi	a4,a4,-932 # 80003fd4 <Bool_Glob>
    80002380:	00072683          	lw	a3,0(a4)
    80002384:	00002797          	auipc	a5,0x2
    80002388:	c4d7c783          	lbu	a5,-947(a5) # 80003fd1 <Ch_1_Glob>
    8000238c:	fbf78793          	addi	a5,a5,-65
    80002390:	0017b793          	seqz	a5,a5
    80002394:	00d7e7b3          	or	a5,a5,a3
    80002398:	00f72023          	sw	a5,0(a4)
    8000239c:	04200793          	li	a5,66
    800023a0:	00002717          	auipc	a4,0x2
    800023a4:	c2f70823          	sb	a5,-976(a4) # 80003fd0 <Ch_2_Glob>
    800023a8:	00008067          	ret

00000000800023ac <Proc_5>:
    800023ac:	04100793          	li	a5,65
    800023b0:	00002717          	auipc	a4,0x2
    800023b4:	c2f700a3          	sb	a5,-991(a4) # 80003fd1 <Ch_1_Glob>
    800023b8:	00002797          	auipc	a5,0x2
    800023bc:	c007ae23          	sw	zero,-996(a5) # 80003fd4 <Bool_Glob>
    800023c0:	00008067          	ret

00000000800023c4 <vprintfmt>:
    800023c4:	e8010113          	addi	sp,sp,-384
    800023c8:	16813823          	sd	s0,368(sp)
    800023cc:	17213023          	sd	s2,352(sp)
    800023d0:	15313c23          	sd	s3,344(sp)
    800023d4:	15513423          	sd	s5,328(sp)
    800023d8:	16113c23          	sd	ra,376(sp)
    800023dc:	16913423          	sd	s1,360(sp)
    800023e0:	15413823          	sd	s4,336(sp)
    800023e4:	15613023          	sd	s6,320(sp)
    800023e8:	13713c23          	sd	s7,312(sp)
    800023ec:	13813823          	sd	s8,304(sp)
    800023f0:	13913423          	sd	s9,296(sp)
    800023f4:	13a13023          	sd	s10,288(sp)
    800023f8:	11b13c23          	sd	s11,280(sp)
    800023fc:	00050993          	mv	s3,a0
    80002400:	00058913          	mv	s2,a1
    80002404:	00060413          	mv	s0,a2
    80002408:	00d13423          	sd	a3,8(sp)
    8000240c:	02500a93          	li	s5,37
    80002410:	0140006f          	j	80002424 <vprintfmt+0x60>
    80002414:	06050463          	beqz	a0,8000247c <vprintfmt+0xb8>
    80002418:	00090593          	mv	a1,s2
    8000241c:	00140413          	addi	s0,s0,1
    80002420:	000980e7          	jalr	s3
    80002424:	00044503          	lbu	a0,0(s0)
    80002428:	ff5516e3          	bne	a0,s5,80002414 <vprintfmt+0x50>
    8000242c:	00144683          	lbu	a3,1(s0)
    80002430:	00140a13          	addi	s4,s0,1
    80002434:	000a0713          	mv	a4,s4
    80002438:	02000c93          	li	s9,32
    8000243c:	fff00493          	li	s1,-1
    80002440:	fff00c13          	li	s8,-1
    80002444:	00000513          	li	a0,0
    80002448:	05500613          	li	a2,85
    8000244c:	00900593          	li	a1,9
    80002450:	fdd6879b          	addiw	a5,a3,-35
    80002454:	0ff7f793          	andi	a5,a5,255
    80002458:	00170413          	addi	s0,a4,1
    8000245c:	06f66c63          	bltu	a2,a5,800024d4 <vprintfmt+0x110>
    80002460:	00002817          	auipc	a6,0x2
    80002464:	9e880813          	addi	a6,a6,-1560 # 80003e48 <main+0xe94>
    80002468:	00279793          	slli	a5,a5,0x2
    8000246c:	010787b3          	add	a5,a5,a6
    80002470:	0007a783          	lw	a5,0(a5)
    80002474:	010787b3          	add	a5,a5,a6
    80002478:	00078067          	jr	a5
    8000247c:	17813083          	ld	ra,376(sp)
    80002480:	17013403          	ld	s0,368(sp)
    80002484:	16813483          	ld	s1,360(sp)
    80002488:	16013903          	ld	s2,352(sp)
    8000248c:	15813983          	ld	s3,344(sp)
    80002490:	15013a03          	ld	s4,336(sp)
    80002494:	14813a83          	ld	s5,328(sp)
    80002498:	14013b03          	ld	s6,320(sp)
    8000249c:	13813b83          	ld	s7,312(sp)
    800024a0:	13013c03          	ld	s8,304(sp)
    800024a4:	12813c83          	ld	s9,296(sp)
    800024a8:	12013d03          	ld	s10,288(sp)
    800024ac:	11813d83          	ld	s11,280(sp)
    800024b0:	18010113          	addi	sp,sp,384
    800024b4:	00008067          	ret
    800024b8:	00068c93          	mv	s9,a3
    800024bc:	00174683          	lbu	a3,1(a4)
    800024c0:	00040713          	mv	a4,s0
    800024c4:	00170413          	addi	s0,a4,1
    800024c8:	fdd6879b          	addiw	a5,a3,-35
    800024cc:	0ff7f793          	andi	a5,a5,255
    800024d0:	f8f678e3          	bgeu	a2,a5,80002460 <vprintfmt+0x9c>
    800024d4:	00090593          	mv	a1,s2
    800024d8:	02500513          	li	a0,37
    800024dc:	000980e7          	jalr	s3
    800024e0:	000a0413          	mv	s0,s4
    800024e4:	f41ff06f          	j	80002424 <vprintfmt+0x60>
    800024e8:	fd06849b          	addiw	s1,a3,-48
    800024ec:	00174683          	lbu	a3,1(a4)
    800024f0:	00040713          	mv	a4,s0
    800024f4:	fd06879b          	addiw	a5,a3,-48
    800024f8:	0006881b          	sext.w	a6,a3
    800024fc:	02f5e663          	bltu	a1,a5,80002528 <vprintfmt+0x164>
    80002500:	00174683          	lbu	a3,1(a4)
    80002504:	0024979b          	slliw	a5,s1,0x2
    80002508:	009784bb          	addw	s1,a5,s1
    8000250c:	0014949b          	slliw	s1,s1,0x1
    80002510:	010484bb          	addw	s1,s1,a6
    80002514:	fd06879b          	addiw	a5,a3,-48
    80002518:	00170713          	addi	a4,a4,1
    8000251c:	fd04849b          	addiw	s1,s1,-48
    80002520:	0006881b          	sext.w	a6,a3
    80002524:	fcf5fee3          	bgeu	a1,a5,80002500 <vprintfmt+0x13c>
    80002528:	f20c54e3          	bgez	s8,80002450 <vprintfmt+0x8c>
    8000252c:	00048c13          	mv	s8,s1
    80002530:	fff00493          	li	s1,-1
    80002534:	f1dff06f          	j	80002450 <vprintfmt+0x8c>
    80002538:	00174683          	lbu	a3,1(a4)
    8000253c:	00040713          	mv	a4,s0
    80002540:	f11ff06f          	j	80002450 <vprintfmt+0x8c>
    80002544:	00090593          	mv	a1,s2
    80002548:	02500513          	li	a0,37
    8000254c:	000980e7          	jalr	s3
    80002550:	ed5ff06f          	j	80002424 <vprintfmt+0x60>
    80002554:	00813783          	ld	a5,8(sp)
    80002558:	00174683          	lbu	a3,1(a4)
    8000255c:	00040713          	mv	a4,s0
    80002560:	0007a483          	lw	s1,0(a5)
    80002564:	00878793          	addi	a5,a5,8
    80002568:	00f13423          	sd	a5,8(sp)
    8000256c:	fbdff06f          	j	80002528 <vprintfmt+0x164>
    80002570:	03000513          	li	a0,48
    80002574:	00090593          	mv	a1,s2
    80002578:	000980e7          	jalr	s3
    8000257c:	00090593          	mv	a1,s2
    80002580:	07800513          	li	a0,120
    80002584:	000980e7          	jalr	s3
    80002588:	00813783          	ld	a5,8(sp)
    8000258c:	01000b93          	li	s7,16
    80002590:	00878793          	addi	a5,a5,8
    80002594:	00813703          	ld	a4,8(sp)
    80002598:	00f13423          	sd	a5,8(sp)
    8000259c:	00073a03          	ld	s4,0(a4)
    800025a0:	000b8593          	mv	a1,s7
    800025a4:	000a0513          	mv	a0,s4
    800025a8:	19d000ef          	jal	ra,80002f44 <__umoddi3>
    800025ac:	0005049b          	sext.w	s1,a0
    800025b0:	00912823          	sw	s1,16(sp)
    800025b4:	000c8c9b          	sext.w	s9,s9
    800025b8:	01410b13          	addi	s6,sp,20
    800025bc:	00100d93          	li	s11,1
    800025c0:	1f7a6e63          	bltu	s4,s7,800027bc <vprintfmt+0x3f8>
    800025c4:	000b8593          	mv	a1,s7
    800025c8:	000a0513          	mv	a0,s4
    800025cc:	131000ef          	jal	ra,80002efc <__udivdi3>
    800025d0:	000b8593          	mv	a1,s7
    800025d4:	00050a13          	mv	s4,a0
    800025d8:	16d000ef          	jal	ra,80002f44 <__umoddi3>
    800025dc:	0005049b          	sext.w	s1,a0
    800025e0:	009b2023          	sw	s1,0(s6)
    800025e4:	000d8d13          	mv	s10,s11
    800025e8:	004b0b13          	addi	s6,s6,4
    800025ec:	001d8d9b          	addiw	s11,s11,1
    800025f0:	fd7a7ae3          	bgeu	s4,s7,800025c4 <vprintfmt+0x200>
    800025f4:	018dde63          	bge	s11,s8,80002610 <vprintfmt+0x24c>
    800025f8:	000c0c1b          	sext.w	s8,s8
    800025fc:	fffc0c1b          	addiw	s8,s8,-1
    80002600:	00090593          	mv	a1,s2
    80002604:	000c8513          	mv	a0,s9
    80002608:	000980e7          	jalr	s3
    8000260c:	ff8dc8e3          	blt	s11,s8,800025fc <vprintfmt+0x238>
    80002610:	01010793          	addi	a5,sp,16
    80002614:	002d1a13          	slli	s4,s10,0x2
    80002618:	01478a33          	add	s4,a5,s4
    8000261c:	00078c93          	mv	s9,a5
    80002620:	00900c13          	li	s8,9
    80002624:	00c0006f          	j	80002630 <vprintfmt+0x26c>
    80002628:	ffca2483          	lw	s1,-4(s4)
    8000262c:	ffca0a13          	addi	s4,s4,-4
    80002630:	05700513          	li	a0,87
    80002634:	009c6463          	bltu	s8,s1,8000263c <vprintfmt+0x278>
    80002638:	03000513          	li	a0,48
    8000263c:	00090593          	mv	a1,s2
    80002640:	0095053b          	addw	a0,a0,s1
    80002644:	000980e7          	jalr	s3
    80002648:	ff9a10e3          	bne	s4,s9,80002628 <vprintfmt+0x264>
    8000264c:	dd9ff06f          	j	80002424 <vprintfmt+0x60>
    80002650:	00813703          	ld	a4,8(sp)
    80002654:	00100793          	li	a5,1
    80002658:	00870493          	addi	s1,a4,8
    8000265c:	16a7c863          	blt	a5,a0,800027cc <vprintfmt+0x408>
    80002660:	00813783          	ld	a5,8(sp)
    80002664:	16050863          	beqz	a0,800027d4 <vprintfmt+0x410>
    80002668:	0007ba03          	ld	s4,0(a5)
    8000266c:	000a5a63          	bgez	s4,80002680 <vprintfmt+0x2bc>
    80002670:	00090593          	mv	a1,s2
    80002674:	02d00513          	li	a0,45
    80002678:	000980e7          	jalr	s3
    8000267c:	41400a33          	neg	s4,s4
    80002680:	00913423          	sd	s1,8(sp)
    80002684:	00a00b93          	li	s7,10
    80002688:	f19ff06f          	j	800025a0 <vprintfmt+0x1dc>
    8000268c:	00174683          	lbu	a3,1(a4)
    80002690:	0015051b          	addiw	a0,a0,1
    80002694:	00040713          	mv	a4,s0
    80002698:	db9ff06f          	j	80002450 <vprintfmt+0x8c>
    8000269c:	01000b93          	li	s7,16
    800026a0:	00813683          	ld	a3,8(sp)
    800026a4:	00100713          	li	a4,1
    800026a8:	00868793          	addi	a5,a3,8
    800026ac:	10a74263          	blt	a4,a0,800027b0 <vprintfmt+0x3ec>
    800026b0:	ee0512e3          	bnez	a0,80002594 <vprintfmt+0x1d0>
    800026b4:	00813703          	ld	a4,8(sp)
    800026b8:	00f13423          	sd	a5,8(sp)
    800026bc:	00076a03          	lwu	s4,0(a4)
    800026c0:	ee1ff06f          	j	800025a0 <vprintfmt+0x1dc>
    800026c4:	00813783          	ld	a5,8(sp)
    800026c8:	0007ba03          	ld	s4,0(a5)
    800026cc:	00878b13          	addi	s6,a5,8
    800026d0:	100a0e63          	beqz	s4,800027ec <vprintfmt+0x428>
    800026d4:	09805a63          	blez	s8,80002768 <vprintfmt+0x3a4>
    800026d8:	02d00793          	li	a5,45
    800026dc:	04fc9e63          	bne	s9,a5,80002738 <vprintfmt+0x374>
    800026e0:	000a4503          	lbu	a0,0(s4)
    800026e4:	02050863          	beqz	a0,80002714 <vprintfmt+0x350>
    800026e8:	fff00c93          	li	s9,-1
    800026ec:	0004c663          	bltz	s1,800026f8 <vprintfmt+0x334>
    800026f0:	fff4849b          	addiw	s1,s1,-1
    800026f4:	01948e63          	beq	s1,s9,80002710 <vprintfmt+0x34c>
    800026f8:	00090593          	mv	a1,s2
    800026fc:	001a0a13          	addi	s4,s4,1
    80002700:	000980e7          	jalr	s3
    80002704:	000a4503          	lbu	a0,0(s4)
    80002708:	fffc0c1b          	addiw	s8,s8,-1
    8000270c:	fe0510e3          	bnez	a0,800026ec <vprintfmt+0x328>
    80002710:	01805c63          	blez	s8,80002728 <vprintfmt+0x364>
    80002714:	fffc0c1b          	addiw	s8,s8,-1
    80002718:	00090593          	mv	a1,s2
    8000271c:	02000513          	li	a0,32
    80002720:	000980e7          	jalr	s3
    80002724:	fe0c18e3          	bnez	s8,80002714 <vprintfmt+0x350>
    80002728:	01613423          	sd	s6,8(sp)
    8000272c:	cf9ff06f          	j	80002424 <vprintfmt+0x60>
    80002730:	00001a17          	auipc	s4,0x1
    80002734:	6d0a0a13          	addi	s4,s4,1744 # 80003e00 <main+0xe4c>
    80002738:	000c061b          	sext.w	a2,s8
    8000273c:	000a0793          	mv	a5,s4
    80002740:	009a06b3          	add	a3,s4,s1
    80002744:	00049863          	bnez	s1,80002754 <vprintfmt+0x390>
    80002748:	0c40006f          	j	8000280c <vprintfmt+0x448>
    8000274c:	00178793          	addi	a5,a5,1
    80002750:	00d78663          	beq	a5,a3,8000275c <vprintfmt+0x398>
    80002754:	0007c703          	lbu	a4,0(a5)
    80002758:	fe071ae3          	bnez	a4,8000274c <vprintfmt+0x388>
    8000275c:	414787b3          	sub	a5,a5,s4
    80002760:	40f60c3b          	subw	s8,a2,a5
    80002764:	0b804463          	bgtz	s8,8000280c <vprintfmt+0x448>
    80002768:	000a4503          	lbu	a0,0(s4)
    8000276c:	fa050ee3          	beqz	a0,80002728 <vprintfmt+0x364>
    80002770:	fff00c93          	li	s9,-1
    80002774:	f79ff06f          	j	800026ec <vprintfmt+0x328>
    80002778:	fffc4793          	not	a5,s8
    8000277c:	43f7d793          	srai	a5,a5,0x3f
    80002780:	00fc7c33          	and	s8,s8,a5
    80002784:	00174683          	lbu	a3,1(a4)
    80002788:	000c0c1b          	sext.w	s8,s8
    8000278c:	00040713          	mv	a4,s0
    80002790:	cc1ff06f          	j	80002450 <vprintfmt+0x8c>
    80002794:	00813783          	ld	a5,8(sp)
    80002798:	00090593          	mv	a1,s2
    8000279c:	0007a503          	lw	a0,0(a5)
    800027a0:	00878b13          	addi	s6,a5,8
    800027a4:	000980e7          	jalr	s3
    800027a8:	01613423          	sd	s6,8(sp)
    800027ac:	c79ff06f          	j	80002424 <vprintfmt+0x60>
    800027b0:	0006ba03          	ld	s4,0(a3)
    800027b4:	00f13423          	sd	a5,8(sp)
    800027b8:	de9ff06f          	j	800025a0 <vprintfmt+0x1dc>
    800027bc:	00100793          	li	a5,1
    800027c0:	00000d13          	li	s10,0
    800027c4:	e387cae3          	blt	a5,s8,800025f8 <vprintfmt+0x234>
    800027c8:	e49ff06f          	j	80002610 <vprintfmt+0x24c>
    800027cc:	00073a03          	ld	s4,0(a4)
    800027d0:	e9dff06f          	j	8000266c <vprintfmt+0x2a8>
    800027d4:	0007aa03          	lw	s4,0(a5)
    800027d8:	e95ff06f          	j	8000266c <vprintfmt+0x2a8>
    800027dc:	00800b93          	li	s7,8
    800027e0:	ec1ff06f          	j	800026a0 <vprintfmt+0x2dc>
    800027e4:	00a00b93          	li	s7,10
    800027e8:	eb9ff06f          	j	800026a0 <vprintfmt+0x2dc>
    800027ec:	03805e63          	blez	s8,80002828 <vprintfmt+0x464>
    800027f0:	02d00793          	li	a5,45
    800027f4:	f2fc9ee3          	bne	s9,a5,80002730 <vprintfmt+0x36c>
    800027f8:	02800513          	li	a0,40
    800027fc:	00001a17          	auipc	s4,0x1
    80002800:	604a0a13          	addi	s4,s4,1540 # 80003e00 <main+0xe4c>
    80002804:	fff00c93          	li	s9,-1
    80002808:	ee5ff06f          	j	800026ec <vprintfmt+0x328>
    8000280c:	000c8c9b          	sext.w	s9,s9
    80002810:	fffc0c1b          	addiw	s8,s8,-1
    80002814:	00090593          	mv	a1,s2
    80002818:	000c8513          	mv	a0,s9
    8000281c:	000980e7          	jalr	s3
    80002820:	fe0c18e3          	bnez	s8,80002810 <vprintfmt+0x44c>
    80002824:	f45ff06f          	j	80002768 <vprintfmt+0x3a4>
    80002828:	00001a17          	auipc	s4,0x1
    8000282c:	5d8a0a13          	addi	s4,s4,1496 # 80003e00 <main+0xe4c>
    80002830:	02800513          	li	a0,40
    80002834:	fff00c93          	li	s9,-1
    80002838:	eb5ff06f          	j	800026ec <vprintfmt+0x328>

000000008000283c <sprintf_putch.3105>:
    8000283c:	0005b783          	ld	a5,0(a1)
    80002840:	00a78023          	sb	a0,0(a5)
    80002844:	0005b783          	ld	a5,0(a1)
    80002848:	00178793          	addi	a5,a5,1
    8000284c:	00f5b023          	sd	a5,0(a1)
    80002850:	00008067          	ret

0000000080002854 <putchar>:
    80002854:	04022803          	lw	a6,64(tp) # 40 <buflen.2991>
    80002858:	00020793          	mv	a5,tp
    8000285c:	010787b3          	add	a5,a5,a6
    80002860:	f9010113          	addi	sp,sp,-112
    80002864:	0018071b          	addiw	a4,a6,1
    80002868:	04e22023          	sw	a4,64(tp) # 40 <buflen.2991>
    8000286c:	00a78023          	sb	a0,0(a5)
    80002870:	00a00593          	li	a1,10
    80002874:	03f10793          	addi	a5,sp,63
    80002878:	fc07f793          	andi	a5,a5,-64
    8000287c:	00b50c63          	beq	a0,a1,80002894 <putchar+0x40>
    80002880:	04000593          	li	a1,64
    80002884:	00b70863          	beq	a4,a1,80002894 <putchar+0x40>
    80002888:	00000513          	li	a0,0
    8000288c:	07010113          	addi	sp,sp,112
    80002890:	00008067          	ret
    80002894:	04000593          	li	a1,64
    80002898:	00b7b023          	sd	a1,0(a5)
    8000289c:	00100593          	li	a1,1
    800028a0:	00b7b423          	sd	a1,8(a5)
    800028a4:	00020693          	mv	a3,tp
    800028a8:	00d7b823          	sd	a3,16(a5)
    800028ac:	00e7bc23          	sd	a4,24(a5)
    800028b0:	0ff0000f          	fence
    800028b4:	ffffe697          	auipc	a3,0xffffe
    800028b8:	78c68693          	addi	a3,a3,1932 # 80001040 <fromhost>
    800028bc:	ffffe717          	auipc	a4,0xffffe
    800028c0:	74f73223          	sd	a5,1860(a4) # 80001000 <tohost>
    800028c4:	0006b703          	ld	a4,0(a3)
    800028c8:	fe070ee3          	beqz	a4,800028c4 <putchar+0x70>
    800028cc:	ffffe717          	auipc	a4,0xffffe
    800028d0:	76073a23          	sd	zero,1908(a4) # 80001040 <fromhost>
    800028d4:	0ff0000f          	fence
    800028d8:	04022023          	sw	zero,64(tp) # 40 <buflen.2991>
    800028dc:	0007b783          	ld	a5,0(a5)
    800028e0:	00000513          	li	a0,0
    800028e4:	07010113          	addi	sp,sp,112
    800028e8:	00008067          	ret

00000000800028ec <setStats>:
    800028ec:	b0002773          	csrr	a4,mcycle
    800028f0:	00004797          	auipc	a5,0x4
    800028f4:	ed878793          	addi	a5,a5,-296 # 800067c8 <counters>
    800028f8:	00051c63          	bnez	a0,80002910 <setStats+0x24>
    800028fc:	0007b683          	ld	a3,0(a5)
    80002900:	00001617          	auipc	a2,0x1
    80002904:	50860613          	addi	a2,a2,1288 # 80003e08 <main+0xe54>
    80002908:	00c7b823          	sd	a2,16(a5)
    8000290c:	40d70733          	sub	a4,a4,a3
    80002910:	00e7b023          	sd	a4,0(a5)
    80002914:	b0202773          	csrr	a4,minstret
    80002918:	00051c63          	bnez	a0,80002930 <setStats+0x44>
    8000291c:	0087b683          	ld	a3,8(a5)
    80002920:	00001617          	auipc	a2,0x1
    80002924:	4f060613          	addi	a2,a2,1264 # 80003e10 <main+0xe5c>
    80002928:	00c7bc23          	sd	a2,24(a5)
    8000292c:	40d70733          	sub	a4,a4,a3
    80002930:	00e7b423          	sd	a4,8(a5)
    80002934:	00008067          	ret

0000000080002938 <tohost_exit>:
    80002938:	00151793          	slli	a5,a0,0x1
    8000293c:	0017e793          	ori	a5,a5,1
    80002940:	ffffe717          	auipc	a4,0xffffe
    80002944:	6cf73023          	sd	a5,1728(a4) # 80001000 <tohost>
    80002948:	0000006f          	j	80002948 <tohost_exit+0x10>

000000008000294c <handle_trap>:
    8000294c:	000017b7          	lui	a5,0x1
    80002950:	a7378793          	addi	a5,a5,-1421 # a73 <buflen.2991+0xa33>
    80002954:	ffffe717          	auipc	a4,0xffffe
    80002958:	6af73623          	sd	a5,1708(a4) # 80001000 <tohost>
    8000295c:	0000006f          	j	8000295c <handle_trap+0x10>

0000000080002960 <exit>:
    80002960:	ff010113          	addi	sp,sp,-16
    80002964:	00113423          	sd	ra,8(sp)
    80002968:	fd1ff0ef          	jal	ra,80002938 <tohost_exit>

000000008000296c <abort>:
    8000296c:	10d00793          	li	a5,269
    80002970:	ffffe717          	auipc	a4,0xffffe
    80002974:	68f73823          	sd	a5,1680(a4) # 80001000 <tohost>
    80002978:	0000006f          	j	80002978 <abort+0xc>

000000008000297c <printstr>:
    8000297c:	00054783          	lbu	a5,0(a0)
    80002980:	f9010113          	addi	sp,sp,-112
    80002984:	03f10693          	addi	a3,sp,63
    80002988:	fc06f693          	andi	a3,a3,-64
    8000298c:	06078263          	beqz	a5,800029f0 <printstr+0x74>
    80002990:	00050793          	mv	a5,a0
    80002994:	0017c703          	lbu	a4,1(a5)
    80002998:	00178793          	addi	a5,a5,1
    8000299c:	fe071ce3          	bnez	a4,80002994 <printstr+0x18>
    800029a0:	40a787b3          	sub	a5,a5,a0
    800029a4:	04000713          	li	a4,64
    800029a8:	00e6b023          	sd	a4,0(a3)
    800029ac:	00100713          	li	a4,1
    800029b0:	00e6b423          	sd	a4,8(a3)
    800029b4:	00a6b823          	sd	a0,16(a3)
    800029b8:	00f6bc23          	sd	a5,24(a3)
    800029bc:	0ff0000f          	fence
    800029c0:	ffffe717          	auipc	a4,0xffffe
    800029c4:	68070713          	addi	a4,a4,1664 # 80001040 <fromhost>
    800029c8:	ffffe797          	auipc	a5,0xffffe
    800029cc:	62d7bc23          	sd	a3,1592(a5) # 80001000 <tohost>
    800029d0:	00073783          	ld	a5,0(a4)
    800029d4:	fe078ee3          	beqz	a5,800029d0 <printstr+0x54>
    800029d8:	ffffe797          	auipc	a5,0xffffe
    800029dc:	6607b423          	sd	zero,1640(a5) # 80001040 <fromhost>
    800029e0:	0ff0000f          	fence
    800029e4:	0006b783          	ld	a5,0(a3)
    800029e8:	07010113          	addi	sp,sp,112
    800029ec:	00008067          	ret
    800029f0:	00000793          	li	a5,0
    800029f4:	fb1ff06f          	j	800029a4 <printstr+0x28>

00000000800029f8 <thread_entry>:
    800029f8:	00051063          	bnez	a0,800029f8 <thread_entry>
    800029fc:	00008067          	ret

0000000080002a00 <printhex>:
    80002a00:	fd010113          	addi	sp,sp,-48
    80002a04:	00050793          	mv	a5,a0
    80002a08:	02113423          	sd	ra,40(sp)
    80002a0c:	00810513          	addi	a0,sp,8
    80002a10:	01710613          	addi	a2,sp,23
    80002a14:	00900813          	li	a6,9
    80002a18:	0080006f          	j	80002a20 <printhex+0x20>
    80002a1c:	00070613          	mv	a2,a4
    80002a20:	00f7f693          	andi	a3,a5,15
    80002a24:	00068713          	mv	a4,a3
    80002a28:	03000593          	li	a1,48
    80002a2c:	00d87463          	bgeu	a6,a3,80002a34 <printhex+0x34>
    80002a30:	05700593          	li	a1,87
    80002a34:	00b7073b          	addw	a4,a4,a1
    80002a38:	00e60023          	sb	a4,0(a2)
    80002a3c:	0047d793          	srli	a5,a5,0x4
    80002a40:	fff60713          	addi	a4,a2,-1
    80002a44:	fcc51ce3          	bne	a0,a2,80002a1c <printhex+0x1c>
    80002a48:	00010c23          	sb	zero,24(sp)
    80002a4c:	f31ff0ef          	jal	ra,8000297c <printstr>
    80002a50:	02813083          	ld	ra,40(sp)
    80002a54:	03010113          	addi	sp,sp,48
    80002a58:	00008067          	ret

0000000080002a5c <printf>:
    80002a5c:	fa010113          	addi	sp,sp,-96
    80002a60:	02810313          	addi	t1,sp,40
    80002a64:	00050e13          	mv	t3,a0
    80002a68:	02b13423          	sd	a1,40(sp)
    80002a6c:	02c13823          	sd	a2,48(sp)
    80002a70:	02d13c23          	sd	a3,56(sp)
    80002a74:	00000517          	auipc	a0,0x0
    80002a78:	de050513          	addi	a0,a0,-544 # 80002854 <putchar>
    80002a7c:	00030693          	mv	a3,t1
    80002a80:	000e0613          	mv	a2,t3
    80002a84:	00000593          	li	a1,0
    80002a88:	00113c23          	sd	ra,24(sp)
    80002a8c:	04e13023          	sd	a4,64(sp)
    80002a90:	04f13423          	sd	a5,72(sp)
    80002a94:	05013823          	sd	a6,80(sp)
    80002a98:	05113c23          	sd	a7,88(sp)
    80002a9c:	00613423          	sd	t1,8(sp)
    80002aa0:	925ff0ef          	jal	ra,800023c4 <vprintfmt>
    80002aa4:	01813083          	ld	ra,24(sp)
    80002aa8:	00000513          	li	a0,0
    80002aac:	06010113          	addi	sp,sp,96
    80002ab0:	00008067          	ret

0000000080002ab4 <sprintf>:
    80002ab4:	fa010113          	addi	sp,sp,-96
    80002ab8:	03010313          	addi	t1,sp,48
    80002abc:	02813023          	sd	s0,32(sp)
    80002ac0:	00a13423          	sd	a0,8(sp)
    80002ac4:	02c13823          	sd	a2,48(sp)
    80002ac8:	02d13c23          	sd	a3,56(sp)
    80002acc:	00050413          	mv	s0,a0
    80002ad0:	00058613          	mv	a2,a1
    80002ad4:	00000517          	auipc	a0,0x0
    80002ad8:	d6850513          	addi	a0,a0,-664 # 8000283c <sprintf_putch.3105>
    80002adc:	00810593          	addi	a1,sp,8
    80002ae0:	00030693          	mv	a3,t1
    80002ae4:	02113423          	sd	ra,40(sp)
    80002ae8:	04f13423          	sd	a5,72(sp)
    80002aec:	04e13023          	sd	a4,64(sp)
    80002af0:	05013823          	sd	a6,80(sp)
    80002af4:	05113c23          	sd	a7,88(sp)
    80002af8:	00613c23          	sd	t1,24(sp)
    80002afc:	8c9ff0ef          	jal	ra,800023c4 <vprintfmt>
    80002b00:	00813783          	ld	a5,8(sp)
    80002b04:	00078023          	sb	zero,0(a5)
    80002b08:	00813503          	ld	a0,8(sp)
    80002b0c:	02813083          	ld	ra,40(sp)
    80002b10:	4085053b          	subw	a0,a0,s0
    80002b14:	02013403          	ld	s0,32(sp)
    80002b18:	06010113          	addi	sp,sp,96
    80002b1c:	00008067          	ret

0000000080002b20 <memcpy>:
    80002b20:	00c5e7b3          	or	a5,a1,a2
    80002b24:	00f567b3          	or	a5,a0,a5
    80002b28:	0077f793          	andi	a5,a5,7
    80002b2c:	00c50833          	add	a6,a0,a2
    80002b30:	02078463          	beqz	a5,80002b58 <memcpy+0x38>
    80002b34:	00c58633          	add	a2,a1,a2
    80002b38:	00050793          	mv	a5,a0
    80002b3c:	0b057863          	bgeu	a0,a6,80002bec <memcpy+0xcc>
    80002b40:	0005c703          	lbu	a4,0(a1)
    80002b44:	00158593          	addi	a1,a1,1
    80002b48:	00178793          	addi	a5,a5,1
    80002b4c:	fee78fa3          	sb	a4,-1(a5)
    80002b50:	fec598e3          	bne	a1,a2,80002b40 <memcpy+0x20>
    80002b54:	00008067          	ret
    80002b58:	04050693          	addi	a3,a0,64
    80002b5c:	0906fa63          	bgeu	a3,a6,80002bf0 <memcpy+0xd0>
    80002b60:	00068793          	mv	a5,a3
    80002b64:	00058713          	mv	a4,a1
    80002b68:	00073383          	ld	t2,0(a4)
    80002b6c:	00873283          	ld	t0,8(a4)
    80002b70:	01073f83          	ld	t6,16(a4)
    80002b74:	01873f03          	ld	t5,24(a4)
    80002b78:	02073e83          	ld	t4,32(a4)
    80002b7c:	02873e03          	ld	t3,40(a4)
    80002b80:	03073303          	ld	t1,48(a4)
    80002b84:	03873883          	ld	a7,56(a4)
    80002b88:	04078793          	addi	a5,a5,64
    80002b8c:	f877b023          	sd	t2,-128(a5)
    80002b90:	f857b423          	sd	t0,-120(a5)
    80002b94:	f9f7b823          	sd	t6,-112(a5)
    80002b98:	f9e7bc23          	sd	t5,-104(a5)
    80002b9c:	fbd7b023          	sd	t4,-96(a5)
    80002ba0:	fbc7b423          	sd	t3,-88(a5)
    80002ba4:	fa67b823          	sd	t1,-80(a5)
    80002ba8:	fb17bc23          	sd	a7,-72(a5)
    80002bac:	04070713          	addi	a4,a4,64
    80002bb0:	fb07ece3          	bltu	a5,a6,80002b68 <memcpy+0x48>
    80002bb4:	fbf60613          	addi	a2,a2,-65
    80002bb8:	00665613          	srli	a2,a2,0x6
    80002bbc:	00160793          	addi	a5,a2,1
    80002bc0:	00679793          	slli	a5,a5,0x6
    80002bc4:	00661613          	slli	a2,a2,0x6
    80002bc8:	00f585b3          	add	a1,a1,a5
    80002bcc:	00c687b3          	add	a5,a3,a2
    80002bd0:	f907f2e3          	bgeu	a5,a6,80002b54 <memcpy+0x34>
    80002bd4:	0005b703          	ld	a4,0(a1)
    80002bd8:	00878793          	addi	a5,a5,8
    80002bdc:	00858593          	addi	a1,a1,8
    80002be0:	fee7bc23          	sd	a4,-8(a5)
    80002be4:	ff07e8e3          	bltu	a5,a6,80002bd4 <memcpy+0xb4>
    80002be8:	00008067          	ret
    80002bec:	00008067          	ret
    80002bf0:	00050793          	mv	a5,a0
    80002bf4:	fddff06f          	j	80002bd0 <memcpy+0xb0>

0000000080002bf8 <memset>:
    80002bf8:	00c567b3          	or	a5,a0,a2
    80002bfc:	0077f793          	andi	a5,a5,7
    80002c00:	00c50633          	add	a2,a0,a2
    80002c04:	0ff5f593          	andi	a1,a1,255
    80002c08:	00078e63          	beqz	a5,80002c24 <memset+0x2c>
    80002c0c:	00050793          	mv	a5,a0
    80002c10:	04c57263          	bgeu	a0,a2,80002c54 <memset+0x5c>
    80002c14:	00178793          	addi	a5,a5,1
    80002c18:	feb78fa3          	sb	a1,-1(a5)
    80002c1c:	fef61ce3          	bne	a2,a5,80002c14 <memset+0x1c>
    80002c20:	00008067          	ret
    80002c24:	00859793          	slli	a5,a1,0x8
    80002c28:	00f5e7b3          	or	a5,a1,a5
    80002c2c:	01079593          	slli	a1,a5,0x10
    80002c30:	00b7e7b3          	or	a5,a5,a1
    80002c34:	02079713          	slli	a4,a5,0x20
    80002c38:	00e7e7b3          	or	a5,a5,a4
    80002c3c:	fec572e3          	bgeu	a0,a2,80002c20 <memset+0x28>
    80002c40:	00050713          	mv	a4,a0
    80002c44:	00870713          	addi	a4,a4,8
    80002c48:	fef73c23          	sd	a5,-8(a4)
    80002c4c:	fec76ce3          	bltu	a4,a2,80002c44 <memset+0x4c>
    80002c50:	00008067          	ret
    80002c54:	00008067          	ret

0000000080002c58 <_init>:
    80002c58:	f5010113          	addi	sp,sp,-176
    80002c5c:	00004797          	auipc	a5,0x4
    80002c60:	b8c78793          	addi	a5,a5,-1140 # 800067e8 <_tdata_begin>
    80002c64:	09413023          	sd	s4,128(sp)
    80002c68:	00004a17          	auipc	s4,0x4
    80002c6c:	b80a0a13          	addi	s4,s4,-1152 # 800067e8 <_tdata_begin>
    80002c70:	09313423          	sd	s3,136(sp)
    80002c74:	40fa09b3          	sub	s3,s4,a5
    80002c78:	08913c23          	sd	s1,152(sp)
    80002c7c:	09213823          	sd	s2,144(sp)
    80002c80:	00050493          	mv	s1,a0
    80002c84:	00058913          	mv	s2,a1
    80002c88:	00020513          	mv	a0,tp
    80002c8c:	00078593          	mv	a1,a5
    80002c90:	00098613          	mv	a2,s3
    80002c94:	0a113423          	sd	ra,168(sp)
    80002c98:	0a813023          	sd	s0,160(sp)
    80002c9c:	07513c23          	sd	s5,120(sp)
    80002ca0:	00020a93          	mv	s5,tp
    80002ca4:	e7dff0ef          	jal	ra,80002b20 <memcpy>
    80002ca8:	00004617          	auipc	a2,0x4
    80002cac:	b9c60613          	addi	a2,a2,-1124 # 80006844 <_tbss_end>
    80002cb0:	41460633          	sub	a2,a2,s4
    80002cb4:	00000593          	li	a1,0
    80002cb8:	013a8533          	add	a0,s5,s3
    80002cbc:	f3dff0ef          	jal	ra,80002bf8 <memset>
    80002cc0:	00090593          	mv	a1,s2
    80002cc4:	00048513          	mv	a0,s1
    80002cc8:	d31ff0ef          	jal	ra,800029f8 <thread_entry>
    80002ccc:	00000593          	li	a1,0
    80002cd0:	00000513          	li	a0,0
    80002cd4:	2e0000ef          	jal	ra,80002fb4 <main>
    80002cd8:	00004917          	auipc	s2,0x4
    80002cdc:	af090913          	addi	s2,s2,-1296 # 800067c8 <counters>
    80002ce0:	00093683          	ld	a3,0(s2)
    80002ce4:	03f10413          	addi	s0,sp,63
    80002ce8:	fc047413          	andi	s0,s0,-64
    80002cec:	00050493          	mv	s1,a0
    80002cf0:	04069063          	bnez	a3,80002d30 <_init+0xd8>
    80002cf4:	00893683          	ld	a3,8(s2)
    80002cf8:	00069663          	bnez	a3,80002d04 <_init+0xac>
    80002cfc:	00048513          	mv	a0,s1
    80002d00:	c39ff0ef          	jal	ra,80002938 <tohost_exit>
    80002d04:	00040993          	mv	s3,s0
    80002d08:	01893603          	ld	a2,24(s2)
    80002d0c:	00098513          	mv	a0,s3
    80002d10:	00001597          	auipc	a1,0x1
    80002d14:	12858593          	addi	a1,a1,296 # 80003e38 <main+0xe84>
    80002d18:	d9dff0ef          	jal	ra,80002ab4 <sprintf>
    80002d1c:	00a989b3          	add	s3,s3,a0
    80002d20:	fd340ee3          	beq	s0,s3,80002cfc <_init+0xa4>
    80002d24:	00040513          	mv	a0,s0
    80002d28:	c55ff0ef          	jal	ra,8000297c <printstr>
    80002d2c:	fd1ff06f          	j	80002cfc <_init+0xa4>
    80002d30:	01093603          	ld	a2,16(s2)
    80002d34:	00001597          	auipc	a1,0x1
    80002d38:	10458593          	addi	a1,a1,260 # 80003e38 <main+0xe84>
    80002d3c:	00040513          	mv	a0,s0
    80002d40:	d75ff0ef          	jal	ra,80002ab4 <sprintf>
    80002d44:	00893683          	ld	a3,8(s2)
    80002d48:	00a409b3          	add	s3,s0,a0
    80002d4c:	fc068ae3          	beqz	a3,80002d20 <_init+0xc8>
    80002d50:	fb9ff06f          	j	80002d08 <_init+0xb0>

0000000080002d54 <strlen>:
    80002d54:	00054783          	lbu	a5,0(a0)
    80002d58:	00078e63          	beqz	a5,80002d74 <strlen+0x20>
    80002d5c:	00050793          	mv	a5,a0
    80002d60:	0017c703          	lbu	a4,1(a5)
    80002d64:	00178793          	addi	a5,a5,1
    80002d68:	fe071ce3          	bnez	a4,80002d60 <strlen+0xc>
    80002d6c:	40a78533          	sub	a0,a5,a0
    80002d70:	00008067          	ret
    80002d74:	00000513          	li	a0,0
    80002d78:	00008067          	ret

0000000080002d7c <strnlen>:
    80002d7c:	00050613          	mv	a2,a0
    80002d80:	00b606b3          	add	a3,a2,a1
    80002d84:	00058513          	mv	a0,a1
    80002d88:	00060793          	mv	a5,a2
    80002d8c:	00059863          	bnez	a1,80002d9c <strnlen+0x20>
    80002d90:	01c0006f          	j	80002dac <strnlen+0x30>
    80002d94:	00178793          	addi	a5,a5,1
    80002d98:	00f68863          	beq	a3,a5,80002da8 <strnlen+0x2c>
    80002d9c:	0007c703          	lbu	a4,0(a5)
    80002da0:	fe071ae3          	bnez	a4,80002d94 <strnlen+0x18>
    80002da4:	40c78533          	sub	a0,a5,a2
    80002da8:	00008067          	ret
    80002dac:	00008067          	ret

0000000080002db0 <strcmp>:
    80002db0:	00054783          	lbu	a5,0(a0)
    80002db4:	00158593          	addi	a1,a1,1
    80002db8:	00150513          	addi	a0,a0,1
    80002dbc:	fff5c703          	lbu	a4,-1(a1)
    80002dc0:	00078a63          	beqz	a5,80002dd4 <strcmp+0x24>
    80002dc4:	fee786e3          	beq	a5,a4,80002db0 <strcmp>
    80002dc8:	0007851b          	sext.w	a0,a5
    80002dcc:	40e5053b          	subw	a0,a0,a4
    80002dd0:	00008067          	ret
    80002dd4:	00000513          	li	a0,0
    80002dd8:	ff5ff06f          	j	80002dcc <strcmp+0x1c>

0000000080002ddc <strcpy>:
    80002ddc:	00050793          	mv	a5,a0
    80002de0:	0005c703          	lbu	a4,0(a1)
    80002de4:	00178793          	addi	a5,a5,1
    80002de8:	00158593          	addi	a1,a1,1
    80002dec:	fee78fa3          	sb	a4,-1(a5)
    80002df0:	fe0718e3          	bnez	a4,80002de0 <strcpy+0x4>
    80002df4:	00008067          	ret

0000000080002df8 <atol>:
    80002df8:	00054703          	lbu	a4,0(a0)
    80002dfc:	02000693          	li	a3,32
    80002e00:	00050793          	mv	a5,a0
    80002e04:	00d71863          	bne	a4,a3,80002e14 <atol+0x1c>
    80002e08:	0017c703          	lbu	a4,1(a5)
    80002e0c:	00178793          	addi	a5,a5,1
    80002e10:	fed70ce3          	beq	a4,a3,80002e08 <atol+0x10>
    80002e14:	02d00693          	li	a3,45
    80002e18:	06d70063          	beq	a4,a3,80002e78 <atol+0x80>
    80002e1c:	02b00693          	li	a3,43
    80002e20:	04d70063          	beq	a4,a3,80002e60 <atol+0x68>
    80002e24:	0007c683          	lbu	a3,0(a5)
    80002e28:	00000593          	li	a1,0
    80002e2c:	04068263          	beqz	a3,80002e70 <atol+0x78>
    80002e30:	00000513          	li	a0,0
    80002e34:	00178793          	addi	a5,a5,1
    80002e38:	fd06861b          	addiw	a2,a3,-48
    80002e3c:	00251713          	slli	a4,a0,0x2
    80002e40:	0007c683          	lbu	a3,0(a5)
    80002e44:	00a70533          	add	a0,a4,a0
    80002e48:	00151513          	slli	a0,a0,0x1
    80002e4c:	00a60533          	add	a0,a2,a0
    80002e50:	fe0692e3          	bnez	a3,80002e34 <atol+0x3c>
    80002e54:	02058063          	beqz	a1,80002e74 <atol+0x7c>
    80002e58:	40a00533          	neg	a0,a0
    80002e5c:	00008067          	ret
    80002e60:	0017c683          	lbu	a3,1(a5)
    80002e64:	00000593          	li	a1,0
    80002e68:	00178793          	addi	a5,a5,1
    80002e6c:	fc0692e3          	bnez	a3,80002e30 <atol+0x38>
    80002e70:	00000513          	li	a0,0
    80002e74:	00008067          	ret
    80002e78:	0017c683          	lbu	a3,1(a5)
    80002e7c:	00100593          	li	a1,1
    80002e80:	00178793          	addi	a5,a5,1
    80002e84:	fa0696e3          	bnez	a3,80002e30 <atol+0x38>
    80002e88:	00000513          	li	a0,0
    80002e8c:	fe9ff06f          	j	80002e74 <atol+0x7c>

0000000080002e90 <__muldi3>:
    80002e90:	00050613          	mv	a2,a0
    80002e94:	00000513          	li	a0,0
    80002e98:	0015f693          	andi	a3,a1,1
    80002e9c:	00068463          	beqz	a3,80002ea4 <__muldi3+0x14>
    80002ea0:	00c50533          	add	a0,a0,a2
    80002ea4:	0015d593          	srli	a1,a1,0x1
    80002ea8:	00161613          	slli	a2,a2,0x1
    80002eac:	fe0596e3          	bnez	a1,80002e98 <__muldi3+0x8>
    80002eb0:	00008067          	ret

0000000080002eb4 <__udivsi3>:
    80002eb4:	02051513          	slli	a0,a0,0x20
    80002eb8:	02059593          	slli	a1,a1,0x20
    80002ebc:	00008293          	mv	t0,ra
    80002ec0:	03c000ef          	jal	ra,80002efc <__udivdi3>
    80002ec4:	0005051b          	sext.w	a0,a0
    80002ec8:	00028067          	jr	t0 # 2000 <buflen.2991+0x1fc0>

0000000080002ecc <__umodsi3>:
    80002ecc:	02051513          	slli	a0,a0,0x20
    80002ed0:	02059593          	slli	a1,a1,0x20
    80002ed4:	02055513          	srli	a0,a0,0x20
    80002ed8:	0205d593          	srli	a1,a1,0x20
    80002edc:	00008293          	mv	t0,ra
    80002ee0:	01c000ef          	jal	ra,80002efc <__udivdi3>
    80002ee4:	0005851b          	sext.w	a0,a1
    80002ee8:	00028067          	jr	t0

0000000080002eec <__divsi3>:
    80002eec:	fff00293          	li	t0,-1
    80002ef0:	0a558c63          	beq	a1,t0,80002fa8 <__moddi3+0x30>

0000000080002ef4 <__divdi3>:
    80002ef4:	06054063          	bltz	a0,80002f54 <__umoddi3+0x10>
    80002ef8:	0605c663          	bltz	a1,80002f64 <__umoddi3+0x20>

0000000080002efc <__udivdi3>:
    80002efc:	00058613          	mv	a2,a1
    80002f00:	00050593          	mv	a1,a0
    80002f04:	fff00513          	li	a0,-1
    80002f08:	02060c63          	beqz	a2,80002f40 <__udivdi3+0x44>
    80002f0c:	00100693          	li	a3,1
    80002f10:	00b67a63          	bgeu	a2,a1,80002f24 <__udivdi3+0x28>
    80002f14:	00c05863          	blez	a2,80002f24 <__udivdi3+0x28>
    80002f18:	00161613          	slli	a2,a2,0x1
    80002f1c:	00169693          	slli	a3,a3,0x1
    80002f20:	feb66ae3          	bltu	a2,a1,80002f14 <__udivdi3+0x18>
    80002f24:	00000513          	li	a0,0
    80002f28:	00c5e663          	bltu	a1,a2,80002f34 <__udivdi3+0x38>
    80002f2c:	40c585b3          	sub	a1,a1,a2
    80002f30:	00d56533          	or	a0,a0,a3
    80002f34:	0016d693          	srli	a3,a3,0x1
    80002f38:	00165613          	srli	a2,a2,0x1
    80002f3c:	fe0696e3          	bnez	a3,80002f28 <__udivdi3+0x2c>
    80002f40:	00008067          	ret

0000000080002f44 <__umoddi3>:
    80002f44:	00008293          	mv	t0,ra
    80002f48:	fb5ff0ef          	jal	ra,80002efc <__udivdi3>
    80002f4c:	00058513          	mv	a0,a1
    80002f50:	00028067          	jr	t0
    80002f54:	40a00533          	neg	a0,a0
    80002f58:	0005d863          	bgez	a1,80002f68 <__umoddi3+0x24>
    80002f5c:	40b005b3          	neg	a1,a1
    80002f60:	f9dff06f          	j	80002efc <__udivdi3>
    80002f64:	40b005b3          	neg	a1,a1
    80002f68:	00008293          	mv	t0,ra
    80002f6c:	f91ff0ef          	jal	ra,80002efc <__udivdi3>
    80002f70:	40a00533          	neg	a0,a0
    80002f74:	00028067          	jr	t0

0000000080002f78 <__moddi3>:
    80002f78:	00008293          	mv	t0,ra
    80002f7c:	0005ca63          	bltz	a1,80002f90 <__moddi3+0x18>
    80002f80:	00054c63          	bltz	a0,80002f98 <__moddi3+0x20>
    80002f84:	f79ff0ef          	jal	ra,80002efc <__udivdi3>
    80002f88:	00058513          	mv	a0,a1
    80002f8c:	00028067          	jr	t0
    80002f90:	40b005b3          	neg	a1,a1
    80002f94:	fe0558e3          	bgez	a0,80002f84 <__moddi3+0xc>
    80002f98:	40a00533          	neg	a0,a0
    80002f9c:	f61ff0ef          	jal	ra,80002efc <__udivdi3>
    80002fa0:	40b00533          	neg	a0,a1
    80002fa4:	00028067          	jr	t0
    80002fa8:	01f29293          	slli	t0,t0,0x1f
    80002fac:	f45514e3          	bne	a0,t0,80002ef4 <__divdi3>
    80002fb0:	00008067          	ret

Disassembly of section .text.startup:

0000000080002fb4 <main>:
    80002fb4:	f3010113          	addi	sp,sp,-208
    80002fb8:	0c113423          	sd	ra,200(sp)
    80002fbc:	0c813023          	sd	s0,192(sp)
    80002fc0:	0a913c23          	sd	s1,184(sp)
    80002fc4:	0d010413          	addi	s0,sp,208
    80002fc8:	0b213823          	sd	s2,176(sp)
    80002fcc:	0b313423          	sd	s3,168(sp)
    80002fd0:	0b413023          	sd	s4,160(sp)
    80002fd4:	09513c23          	sd	s5,152(sp)
    80002fd8:	09613823          	sd	s6,144(sp)
    80002fdc:	09713423          	sd	s7,136(sp)
    80002fe0:	09813023          	sd	s8,128(sp)
    80002fe4:	07913c23          	sd	s9,120(sp)
    80002fe8:	07a13823          	sd	s10,112(sp)
    80002fec:	07b13423          	sd	s11,104(sp)
    80002ff0:	00000797          	auipc	a5,0x0
    80002ff4:	7f078793          	addi	a5,a5,2032 # 800037e0 <main+0x82c>
    80002ff8:	fc010113          	addi	sp,sp,-64
    80002ffc:	00010613          	mv	a2,sp
    80003000:	0007a983          	lw	s3,0(a5)
    80003004:	fc010113          	addi	sp,sp,-64
    80003008:	00100693          	li	a3,1
    8000300c:	0047af83          	lw	t6,4(a5)
    80003010:	0087af03          	lw	t5,8(a5)
    80003014:	00c7ae83          	lw	t4,12(a5)
    80003018:	0107ae03          	lw	t3,16(a5)
    8000301c:	0147a303          	lw	t1,20(a5)
    80003020:	0187a883          	lw	a7,24(a5)
    80003024:	01c7d803          	lhu	a6,28(a5)
    80003028:	01e7c503          	lbu	a0,30(a5)
    8000302c:	02169693          	slli	a3,a3,0x21
    80003030:	00010793          	mv	a5,sp
    80003034:	00d7b423          	sd	a3,8(a5)
    80003038:	02800693          	li	a3,40
    8000303c:	00001717          	auipc	a4,0x1
    80003040:	d6470713          	addi	a4,a4,-668 # 80003da0 <main+0xdec>
    80003044:	00c7b023          	sd	a2,0(a5)
    80003048:	00d7a823          	sw	a3,16(a5)
    8000304c:	0137aa23          	sw	s3,20(a5)
    80003050:	00001697          	auipc	a3,0x1
    80003054:	f9068693          	addi	a3,a3,-112 # 80003fe0 <Next_Ptr_Glob>
    80003058:	01073383          	ld	t2,16(a4)
    8000305c:	01872283          	lw	t0,24(a4)
    80003060:	01c75583          	lhu	a1,28(a4)
    80003064:	00073903          	ld	s2,0(a4)
    80003068:	00873483          	ld	s1,8(a4)
    8000306c:	00c6b023          	sd	a2,0(a3)
    80003070:	84818693          	addi	a3,gp,-1976 # 80003fe8 <Ptr_Glob>
    80003074:	00f6b023          	sd	a5,0(a3)
    80003078:	01f7ac23          	sw	t6,24(a5)
    8000307c:	01e7ae23          	sw	t5,28(a5)
    80003080:	03d7a023          	sw	t4,32(a5)
    80003084:	03c7a223          	sw	t3,36(a5)
    80003088:	0267a423          	sw	t1,40(a5)
    8000308c:	0317a623          	sw	a7,44(a5)
    80003090:	03079823          	sh	a6,48(a5)
    80003094:	02a78923          	sb	a0,50(a5)
    80003098:	01e74783          	lbu	a5,30(a4)
    8000309c:	00001517          	auipc	a0,0x1
    800030a0:	9e450513          	addi	a0,a0,-1564 # 80003a80 <main+0xacc>
    800030a4:	00001717          	auipc	a4,0x1
    800030a8:	01470713          	addi	a4,a4,20 # 800040b8 <Arr_2_Glob>
    800030ac:	f6f40723          	sb	a5,-146(s0)
    800030b0:	00a00793          	li	a5,10
    800030b4:	64f72e23          	sw	a5,1628(a4)
    800030b8:	f6743023          	sd	t2,-160(s0)
    800030bc:	f6542423          	sw	t0,-152(s0)
    800030c0:	f6b41623          	sh	a1,-148(s0)
    800030c4:	f5243823          	sd	s2,-176(s0)
    800030c8:	f4943c23          	sd	s1,-168(s0)
    800030cc:	910ff0ef          	jal	ra,800021dc <debug_printf>
    800030d0:	00000597          	auipc	a1,0x0
    800030d4:	73058593          	addi	a1,a1,1840 # 80003800 <main+0x84c>
    800030d8:	00000517          	auipc	a0,0x0
    800030dc:	73850513          	addi	a0,a0,1848 # 80003810 <main+0x85c>
    800030e0:	8fcff0ef          	jal	ra,800021dc <debug_printf>
    800030e4:	00001797          	auipc	a5,0x1
    800030e8:	ee87a783          	lw	a5,-280(a5) # 80003fcc <Reg>
    800030ec:	6a078e63          	beqz	a5,800037a8 <main+0x7f4>
    800030f0:	00000517          	auipc	a0,0x0
    800030f4:	74850513          	addi	a0,a0,1864 # 80003838 <main+0x884>
    800030f8:	8e4ff0ef          	jal	ra,800021dc <debug_printf>
    800030fc:	000f4637          	lui	a2,0xf4
    80003100:	24060613          	addi	a2,a2,576 # f4240 <buflen.2991+0xf4200>
    80003104:	00000597          	auipc	a1,0x0
    80003108:	79458593          	addi	a1,a1,1940 # 80003898 <main+0x8e4>
    8000310c:	00000517          	auipc	a0,0x0
    80003110:	79c50513          	addi	a0,a0,1948 # 800038a8 <main+0x8f4>
    80003114:	8c8ff0ef          	jal	ra,800021dc <debug_printf>
    80003118:	00001517          	auipc	a0,0x1
    8000311c:	96850513          	addi	a0,a0,-1688 # 80003a80 <main+0xacc>
    80003120:	8bcff0ef          	jal	ra,800021dc <debug_printf>
    80003124:	1f400793          	li	a5,500
    80003128:	f2f43c23          	sd	a5,-200(s0)
    8000312c:	00001a97          	auipc	s5,0x1
    80003130:	c94a8a93          	addi	s5,s5,-876 # 80003dc0 <main+0xe0c>
    80003134:	00001797          	auipc	a5,0x1
    80003138:	e807aa23          	sw	zero,-364(a5) # 80003fc8 <Done>
    8000313c:	00001997          	auipc	s3,0x1
    80003140:	e9498993          	addi	s3,s3,-364 # 80003fd0 <Ch_2_Glob>
    80003144:	00001b97          	auipc	s7,0x1
    80003148:	e94b8b93          	addi	s7,s7,-364 # 80003fd8 <Int_Glob>
    8000314c:	00001d97          	auipc	s11,0x1
    80003150:	f6cd8d93          	addi	s11,s11,-148 # 800040b8 <Arr_2_Glob>
    80003154:	00001917          	auipc	s2,0x1
    80003158:	c8c90913          	addi	s2,s2,-884 # 80003de0 <main+0xe2c>
    8000315c:	f3843483          	ld	s1,-200(s0)
    80003160:	00000517          	auipc	a0,0x0
    80003164:	76050513          	addi	a0,a0,1888 # 800038c0 <main+0x90c>
    80003168:	00048593          	mv	a1,s1
    8000316c:	870ff0ef          	jal	ra,800021dc <debug_printf>
    80003170:	00100513          	li	a0,1
    80003174:	f78ff0ef          	jal	ra,800028ec <setStats>
    80003178:	b00027f3          	csrr	a5,mcycle
    8000317c:	00001717          	auipc	a4,0x1
    80003180:	e4470713          	addi	a4,a4,-444 # 80003fc0 <Begin_Time>
    80003184:	00148c9b          	addiw	s9,s1,1
    80003188:	00100a13          	li	s4,1
    8000318c:	00f73023          	sd	a5,0(a4)
    80003190:	00200493          	li	s1,2
    80003194:	a18ff0ef          	jal	ra,800023ac <Proc_5>
    80003198:	9e0ff0ef          	jal	ra,80002378 <Proc_4>
    8000319c:	01eac783          	lbu	a5,30(s5)
    800031a0:	01cad703          	lhu	a4,28(s5)
    800031a4:	000ab883          	ld	a7,0(s5)
    800031a8:	008ab803          	ld	a6,8(s5)
    800031ac:	010ab603          	ld	a2,16(s5)
    800031b0:	018aa683          	lw	a3,24(s5)
    800031b4:	f8f40723          	sb	a5,-114(s0)
    800031b8:	f7040593          	addi	a1,s0,-144
    800031bc:	00100793          	li	a5,1
    800031c0:	f5040513          	addi	a0,s0,-176
    800031c4:	f8e41623          	sh	a4,-116(s0)
    800031c8:	f4f42623          	sw	a5,-180(s0)
    800031cc:	f4942223          	sw	s1,-188(s0)
    800031d0:	f7143823          	sd	a7,-144(s0)
    800031d4:	f7043c23          	sd	a6,-136(s0)
    800031d8:	f8c43023          	sd	a2,-128(s0)
    800031dc:	f8d42423          	sw	a3,-120(s0)
    800031e0:	ecdfe0ef          	jal	ra,800020ac <Func_2>
    800031e4:	00050793          	mv	a5,a0
    800031e8:	f4442503          	lw	a0,-188(s0)
    800031ec:	0017b793          	seqz	a5,a5
    800031f0:	00001717          	auipc	a4,0x1
    800031f4:	de470713          	addi	a4,a4,-540 # 80003fd4 <Bool_Glob>
    800031f8:	00f72023          	sw	a5,0(a4)
    800031fc:	02a4c863          	blt	s1,a0,8000322c <main+0x278>
    80003200:	0025179b          	slliw	a5,a0,0x2
    80003204:	00a787bb          	addw	a5,a5,a0
    80003208:	ffd7879b          	addiw	a5,a5,-3
    8000320c:	f4840613          	addi	a2,s0,-184
    80003210:	00300593          	li	a1,3
    80003214:	f4f42423          	sw	a5,-184(s0)
    80003218:	de9fe0ef          	jal	ra,80002000 <Proc_7>
    8000321c:	f4442783          	lw	a5,-188(s0)
    80003220:	0017851b          	addiw	a0,a5,1
    80003224:	f4a42223          	sw	a0,-188(s0)
    80003228:	fca4dce3          	bge	s1,a0,80003200 <main+0x24c>
    8000322c:	f4842683          	lw	a3,-184(s0)
    80003230:	00050613          	mv	a2,a0
    80003234:	000d8593          	mv	a1,s11
    80003238:	85018513          	addi	a0,gp,-1968 # 80003ff0 <Arr_1_Glob>
    8000323c:	dd5fe0ef          	jal	ra,80002010 <Proc_8>
    80003240:	84818793          	addi	a5,gp,-1976 # 80003fe8 <Ptr_Glob>
    80003244:	0007b503          	ld	a0,0(a5)
    80003248:	818ff0ef          	jal	ra,80002260 <Proc_1>
    8000324c:	0009c703          	lbu	a4,0(s3)
    80003250:	04000793          	li	a5,64
    80003254:	50e7f663          	bgeu	a5,a4,80003760 <main+0x7ac>
    80003258:	04100c13          	li	s8,65
    8000325c:	00300b13          	li	s6,3
    80003260:	0140006f          	j	80003274 <main+0x2c0>
    80003264:	0009c703          	lbu	a4,0(s3)
    80003268:	001c079b          	addiw	a5,s8,1
    8000326c:	0ff7fc13          	andi	s8,a5,255
    80003270:	07876863          	bltu	a4,s8,800032e0 <main+0x32c>
    80003274:	04300593          	li	a1,67
    80003278:	000c0513          	mv	a0,s8
    8000327c:	e0dfe0ef          	jal	ra,80002088 <Func_1>
    80003280:	f4c42703          	lw	a4,-180(s0)
    80003284:	0005051b          	sext.w	a0,a0
    80003288:	fca71ee3          	bne	a4,a0,80003264 <main+0x2b0>
    8000328c:	f4c40593          	addi	a1,s0,-180
    80003290:	00000513          	li	a0,0
    80003294:	e8dfe0ef          	jal	ra,80002120 <Proc_6>
    80003298:	01e94703          	lbu	a4,30(s2)
    8000329c:	00093803          	ld	a6,0(s2)
    800032a0:	00893503          	ld	a0,8(s2)
    800032a4:	01093583          	ld	a1,16(s2)
    800032a8:	01892603          	lw	a2,24(s2)
    800032ac:	01c95683          	lhu	a3,28(s2)
    800032b0:	f8e40723          	sb	a4,-114(s0)
    800032b4:	0009c703          	lbu	a4,0(s3)
    800032b8:	001c079b          	addiw	a5,s8,1
    800032bc:	f7043823          	sd	a6,-144(s0)
    800032c0:	f6a43c23          	sd	a0,-136(s0)
    800032c4:	f8b43023          	sd	a1,-128(s0)
    800032c8:	f8c42423          	sw	a2,-120(s0)
    800032cc:	f8d41623          	sh	a3,-116(s0)
    800032d0:	014ba023          	sw	s4,0(s7)
    800032d4:	0ff7fc13          	andi	s8,a5,255
    800032d8:	000a0b13          	mv	s6,s4
    800032dc:	f9877ce3          	bgeu	a4,s8,80003274 <main+0x2c0>
    800032e0:	f4442583          	lw	a1,-188(s0)
    800032e4:	000b0513          	mv	a0,s6
    800032e8:	001a0a1b          	addiw	s4,s4,1
    800032ec:	ba5ff0ef          	jal	ra,80002e90 <__muldi3>
    800032f0:	f4842d03          	lw	s10,-184(s0)
    800032f4:	00050c1b          	sext.w	s8,a0
    800032f8:	000c0513          	mv	a0,s8
    800032fc:	000d0593          	mv	a1,s10
    80003300:	bf5ff0ef          	jal	ra,80002ef4 <__divdi3>
    80003304:	00050b1b          	sext.w	s6,a0
    80003308:	f4440513          	addi	a0,s0,-188
    8000330c:	f5642223          	sw	s6,-188(s0)
    80003310:	ef5fe0ef          	jal	ra,80002204 <Proc_2>
    80003314:	e94c90e3          	bne	s9,s4,80003194 <main+0x1e0>
    80003318:	b00026f3          	csrr	a3,mcycle
    8000331c:	00001797          	auipc	a5,0x1
    80003320:	c9c78793          	addi	a5,a5,-868 # 80003fb8 <End_Time>
    80003324:	00000513          	li	a0,0
    80003328:	00078493          	mv	s1,a5
    8000332c:	00d7b023          	sd	a3,0(a5)
    80003330:	dbcff0ef          	jal	ra,800028ec <setStats>
    80003334:	00001797          	auipc	a5,0x1
    80003338:	c8c78793          	addi	a5,a5,-884 # 80003fc0 <Begin_Time>
    8000333c:	0007b603          	ld	a2,0(a5)
    80003340:	0004b683          	ld	a3,0(s1)
    80003344:	00001797          	auipc	a5,0x1
    80003348:	c6c78793          	addi	a5,a5,-916 # 80003fb0 <User_Time>
    8000334c:	40c686b3          	sub	a3,a3,a2
    80003350:	00d7b023          	sd	a3,0(a5)
    80003354:	40d05a63          	blez	a3,80003768 <main+0x7b4>
    80003358:	00100693          	li	a3,1
    8000335c:	00001797          	auipc	a5,0x1
    80003360:	c6c78793          	addi	a5,a5,-916 # 80003fc8 <Done>
    80003364:	00d7a023          	sw	a3,0(a5)
    80003368:	00000517          	auipc	a0,0x0
    8000336c:	5b850513          	addi	a0,a0,1464 # 80003920 <main+0x96c>
    80003370:	e6dfe0ef          	jal	ra,800021dc <debug_printf>
    80003374:	00000517          	auipc	a0,0x0
    80003378:	70c50513          	addi	a0,a0,1804 # 80003a80 <main+0xacc>
    8000337c:	e61fe0ef          	jal	ra,800021dc <debug_printf>
    80003380:	000ba583          	lw	a1,0(s7)
    80003384:	00000517          	auipc	a0,0x0
    80003388:	5d450513          	addi	a0,a0,1492 # 80003958 <main+0x9a4>
    8000338c:	84818913          	addi	s2,gp,-1976 # 80003fe8 <Ptr_Glob>
    80003390:	e4dfe0ef          	jal	ra,800021dc <debug_printf>
    80003394:	00500593          	li	a1,5
    80003398:	00000517          	auipc	a0,0x0
    8000339c:	5e050513          	addi	a0,a0,1504 # 80003978 <main+0x9c4>
    800033a0:	e3dfe0ef          	jal	ra,800021dc <debug_printf>
    800033a4:	00001797          	auipc	a5,0x1
    800033a8:	c3078793          	addi	a5,a5,-976 # 80003fd4 <Bool_Glob>
    800033ac:	0007a583          	lw	a1,0(a5)
    800033b0:	00000517          	auipc	a0,0x0
    800033b4:	5e850513          	addi	a0,a0,1512 # 80003998 <main+0x9e4>
    800033b8:	00001497          	auipc	s1,0x1
    800033bc:	be848493          	addi	s1,s1,-1048 # 80003fa0 <Dhrystones_Per_Second>
    800033c0:	e1dfe0ef          	jal	ra,800021dc <debug_printf>
    800033c4:	00100593          	li	a1,1
    800033c8:	00000517          	auipc	a0,0x0
    800033cc:	5b050513          	addi	a0,a0,1456 # 80003978 <main+0x9c4>
    800033d0:	e0dfe0ef          	jal	ra,800021dc <debug_printf>
    800033d4:	00001597          	auipc	a1,0x1
    800033d8:	bfd5c583          	lbu	a1,-1027(a1) # 80003fd1 <Ch_1_Glob>
    800033dc:	00000517          	auipc	a0,0x0
    800033e0:	5dc50513          	addi	a0,a0,1500 # 800039b8 <main+0xa04>
    800033e4:	df9fe0ef          	jal	ra,800021dc <debug_printf>
    800033e8:	04100593          	li	a1,65
    800033ec:	00000517          	auipc	a0,0x0
    800033f0:	5ec50513          	addi	a0,a0,1516 # 800039d8 <main+0xa24>
    800033f4:	de9fe0ef          	jal	ra,800021dc <debug_printf>
    800033f8:	0009c583          	lbu	a1,0(s3)
    800033fc:	00000517          	auipc	a0,0x0
    80003400:	5fc50513          	addi	a0,a0,1532 # 800039f8 <main+0xa44>
    80003404:	dd9fe0ef          	jal	ra,800021dc <debug_printf>
    80003408:	04200593          	li	a1,66
    8000340c:	00000517          	auipc	a0,0x0
    80003410:	5cc50513          	addi	a0,a0,1484 # 800039d8 <main+0xa24>
    80003414:	dc9fe0ef          	jal	ra,800021dc <debug_printf>
    80003418:	8701a583          	lw	a1,-1936(gp) # 80004010 <Arr_1_Glob+0x20>
    8000341c:	00000517          	auipc	a0,0x0
    80003420:	5fc50513          	addi	a0,a0,1532 # 80003a18 <main+0xa64>
    80003424:	db9fe0ef          	jal	ra,800021dc <debug_printf>
    80003428:	00700593          	li	a1,7
    8000342c:	00000517          	auipc	a0,0x0
    80003430:	54c50513          	addi	a0,a0,1356 # 80003978 <main+0x9c4>
    80003434:	da9fe0ef          	jal	ra,800021dc <debug_printf>
    80003438:	00001797          	auipc	a5,0x1
    8000343c:	c8078793          	addi	a5,a5,-896 # 800040b8 <Arr_2_Glob>
    80003440:	65c7a583          	lw	a1,1628(a5)
    80003444:	00000517          	auipc	a0,0x0
    80003448:	5f450513          	addi	a0,a0,1524 # 80003a38 <main+0xa84>
    8000344c:	d91fe0ef          	jal	ra,800021dc <debug_printf>
    80003450:	00000517          	auipc	a0,0x0
    80003454:	60850513          	addi	a0,a0,1544 # 80003a58 <main+0xaa4>
    80003458:	d85fe0ef          	jal	ra,800021dc <debug_printf>
    8000345c:	00000517          	auipc	a0,0x0
    80003460:	62c50513          	addi	a0,a0,1580 # 80003a88 <main+0xad4>
    80003464:	d79fe0ef          	jal	ra,800021dc <debug_printf>
    80003468:	00093683          	ld	a3,0(s2)
    8000346c:	00000517          	auipc	a0,0x0
    80003470:	62c50513          	addi	a0,a0,1580 # 80003a98 <main+0xae4>
    80003474:	0006b583          	ld	a1,0(a3)
    80003478:	d65fe0ef          	jal	ra,800021dc <debug_printf>
    8000347c:	00000517          	auipc	a0,0x0
    80003480:	63c50513          	addi	a0,a0,1596 # 80003ab8 <main+0xb04>
    80003484:	d59fe0ef          	jal	ra,800021dc <debug_printf>
    80003488:	00093683          	ld	a3,0(s2)
    8000348c:	00000517          	auipc	a0,0x0
    80003490:	66450513          	addi	a0,a0,1636 # 80003af0 <main+0xb3c>
    80003494:	0086a583          	lw	a1,8(a3)
    80003498:	d45fe0ef          	jal	ra,800021dc <debug_printf>
    8000349c:	00000593          	li	a1,0
    800034a0:	00000517          	auipc	a0,0x0
    800034a4:	4d850513          	addi	a0,a0,1240 # 80003978 <main+0x9c4>
    800034a8:	d35fe0ef          	jal	ra,800021dc <debug_printf>
    800034ac:	00093683          	ld	a3,0(s2)
    800034b0:	00000517          	auipc	a0,0x0
    800034b4:	66050513          	addi	a0,a0,1632 # 80003b10 <main+0xb5c>
    800034b8:	00c6a583          	lw	a1,12(a3)
    800034bc:	d21fe0ef          	jal	ra,800021dc <debug_printf>
    800034c0:	00200593          	li	a1,2
    800034c4:	00000517          	auipc	a0,0x0
    800034c8:	4b450513          	addi	a0,a0,1204 # 80003978 <main+0x9c4>
    800034cc:	d11fe0ef          	jal	ra,800021dc <debug_printf>
    800034d0:	00093683          	ld	a3,0(s2)
    800034d4:	00000517          	auipc	a0,0x0
    800034d8:	65c50513          	addi	a0,a0,1628 # 80003b30 <main+0xb7c>
    800034dc:	0106a583          	lw	a1,16(a3)
    800034e0:	cfdfe0ef          	jal	ra,800021dc <debug_printf>
    800034e4:	01100593          	li	a1,17
    800034e8:	00000517          	auipc	a0,0x0
    800034ec:	49050513          	addi	a0,a0,1168 # 80003978 <main+0x9c4>
    800034f0:	cedfe0ef          	jal	ra,800021dc <debug_printf>
    800034f4:	00093583          	ld	a1,0(s2)
    800034f8:	00000517          	auipc	a0,0x0
    800034fc:	65850513          	addi	a0,a0,1624 # 80003b50 <main+0xb9c>
    80003500:	00001917          	auipc	s2,0x1
    80003504:	ae090913          	addi	s2,s2,-1312 # 80003fe0 <Next_Ptr_Glob>
    80003508:	01458593          	addi	a1,a1,20
    8000350c:	cd1fe0ef          	jal	ra,800021dc <debug_printf>
    80003510:	00000517          	auipc	a0,0x0
    80003514:	66050513          	addi	a0,a0,1632 # 80003b70 <main+0xbbc>
    80003518:	cc5fe0ef          	jal	ra,800021dc <debug_printf>
    8000351c:	00000517          	auipc	a0,0x0
    80003520:	68c50513          	addi	a0,a0,1676 # 80003ba8 <main+0xbf4>
    80003524:	cb9fe0ef          	jal	ra,800021dc <debug_printf>
    80003528:	00093683          	ld	a3,0(s2)
    8000352c:	00000517          	auipc	a0,0x0
    80003530:	56c50513          	addi	a0,a0,1388 # 80003a98 <main+0xae4>
    80003534:	0006b583          	ld	a1,0(a3)
    80003538:	ca5fe0ef          	jal	ra,800021dc <debug_printf>
    8000353c:	00000517          	auipc	a0,0x0
    80003540:	68450513          	addi	a0,a0,1668 # 80003bc0 <main+0xc0c>
    80003544:	c99fe0ef          	jal	ra,800021dc <debug_printf>
    80003548:	00093683          	ld	a3,0(s2)
    8000354c:	00000517          	auipc	a0,0x0
    80003550:	5a450513          	addi	a0,a0,1444 # 80003af0 <main+0xb3c>
    80003554:	0086a583          	lw	a1,8(a3)
    80003558:	c85fe0ef          	jal	ra,800021dc <debug_printf>
    8000355c:	00000593          	li	a1,0
    80003560:	00000517          	auipc	a0,0x0
    80003564:	41850513          	addi	a0,a0,1048 # 80003978 <main+0x9c4>
    80003568:	c75fe0ef          	jal	ra,800021dc <debug_printf>
    8000356c:	00093683          	ld	a3,0(s2)
    80003570:	00000517          	auipc	a0,0x0
    80003574:	5a050513          	addi	a0,a0,1440 # 80003b10 <main+0xb5c>
    80003578:	00c6a583          	lw	a1,12(a3)
    8000357c:	c61fe0ef          	jal	ra,800021dc <debug_printf>
    80003580:	00100593          	li	a1,1
    80003584:	00000517          	auipc	a0,0x0
    80003588:	3f450513          	addi	a0,a0,1012 # 80003978 <main+0x9c4>
    8000358c:	c51fe0ef          	jal	ra,800021dc <debug_printf>
    80003590:	00093683          	ld	a3,0(s2)
    80003594:	00000517          	auipc	a0,0x0
    80003598:	59c50513          	addi	a0,a0,1436 # 80003b30 <main+0xb7c>
    8000359c:	0106a583          	lw	a1,16(a3)
    800035a0:	c3dfe0ef          	jal	ra,800021dc <debug_printf>
    800035a4:	01200593          	li	a1,18
    800035a8:	00000517          	auipc	a0,0x0
    800035ac:	3d050513          	addi	a0,a0,976 # 80003978 <main+0x9c4>
    800035b0:	c2dfe0ef          	jal	ra,800021dc <debug_printf>
    800035b4:	00093583          	ld	a1,0(s2)
    800035b8:	00000517          	auipc	a0,0x0
    800035bc:	59850513          	addi	a0,a0,1432 # 80003b50 <main+0xb9c>
    800035c0:	01458593          	addi	a1,a1,20
    800035c4:	c19fe0ef          	jal	ra,800021dc <debug_printf>
    800035c8:	00000517          	auipc	a0,0x0
    800035cc:	5a850513          	addi	a0,a0,1448 # 80003b70 <main+0xbbc>
    800035d0:	c0dfe0ef          	jal	ra,800021dc <debug_printf>
    800035d4:	f4442583          	lw	a1,-188(s0)
    800035d8:	00000517          	auipc	a0,0x0
    800035dc:	62850513          	addi	a0,a0,1576 # 80003c00 <main+0xc4c>
    800035e0:	bfdfe0ef          	jal	ra,800021dc <debug_printf>
    800035e4:	00500593          	li	a1,5
    800035e8:	00000517          	auipc	a0,0x0
    800035ec:	39050513          	addi	a0,a0,912 # 80003978 <main+0x9c4>
    800035f0:	bedfe0ef          	jal	ra,800021dc <debug_printf>
    800035f4:	41ac07bb          	subw	a5,s8,s10
    800035f8:	0037971b          	slliw	a4,a5,0x3
    800035fc:	40f707bb          	subw	a5,a4,a5
    80003600:	416785bb          	subw	a1,a5,s6
    80003604:	00000517          	auipc	a0,0x0
    80003608:	61c50513          	addi	a0,a0,1564 # 80003c20 <main+0xc6c>
    8000360c:	bd1fe0ef          	jal	ra,800021dc <debug_printf>
    80003610:	00d00593          	li	a1,13
    80003614:	00000517          	auipc	a0,0x0
    80003618:	36450513          	addi	a0,a0,868 # 80003978 <main+0x9c4>
    8000361c:	bc1fe0ef          	jal	ra,800021dc <debug_printf>
    80003620:	f4842583          	lw	a1,-184(s0)
    80003624:	00000517          	auipc	a0,0x0
    80003628:	61c50513          	addi	a0,a0,1564 # 80003c40 <main+0xc8c>
    8000362c:	bb1fe0ef          	jal	ra,800021dc <debug_printf>
    80003630:	00700593          	li	a1,7
    80003634:	00000517          	auipc	a0,0x0
    80003638:	34450513          	addi	a0,a0,836 # 80003978 <main+0x9c4>
    8000363c:	ba1fe0ef          	jal	ra,800021dc <debug_printf>
    80003640:	f4c42583          	lw	a1,-180(s0)
    80003644:	00000517          	auipc	a0,0x0
    80003648:	61c50513          	addi	a0,a0,1564 # 80003c60 <main+0xcac>
    8000364c:	b91fe0ef          	jal	ra,800021dc <debug_printf>
    80003650:	00000517          	auipc	a0,0x0
    80003654:	32850513          	addi	a0,a0,808 # 80003978 <main+0x9c4>
    80003658:	00100593          	li	a1,1
    8000365c:	b81fe0ef          	jal	ra,800021dc <debug_printf>
    80003660:	f5040593          	addi	a1,s0,-176
    80003664:	00000517          	auipc	a0,0x0
    80003668:	61c50513          	addi	a0,a0,1564 # 80003c80 <main+0xccc>
    8000366c:	b71fe0ef          	jal	ra,800021dc <debug_printf>
    80003670:	00000517          	auipc	a0,0x0
    80003674:	63050513          	addi	a0,a0,1584 # 80003ca0 <main+0xcec>
    80003678:	b65fe0ef          	jal	ra,800021dc <debug_printf>
    8000367c:	f7040593          	addi	a1,s0,-144
    80003680:	00000517          	auipc	a0,0x0
    80003684:	65850513          	addi	a0,a0,1624 # 80003cd8 <main+0xd24>
    80003688:	b55fe0ef          	jal	ra,800021dc <debug_printf>
    8000368c:	00000517          	auipc	a0,0x0
    80003690:	66c50513          	addi	a0,a0,1644 # 80003cf8 <main+0xd44>
    80003694:	b49fe0ef          	jal	ra,800021dc <debug_printf>
    80003698:	00000517          	auipc	a0,0x0
    8000369c:	3e850513          	addi	a0,a0,1000 # 80003a80 <main+0xacc>
    800036a0:	b3dfe0ef          	jal	ra,800021dc <debug_printf>
    800036a4:	00001797          	auipc	a5,0x1
    800036a8:	90c78793          	addi	a5,a5,-1780 # 80003fb0 <User_Time>
    800036ac:	f3843903          	ld	s2,-200(s0)
    800036b0:	0007b983          	ld	s3,0(a5)
    800036b4:	00090593          	mv	a1,s2
    800036b8:	00098513          	mv	a0,s3
    800036bc:	839ff0ef          	jal	ra,80002ef4 <__divdi3>
    800036c0:	0059179b          	slliw	a5,s2,0x5
    800036c4:	4127873b          	subw	a4,a5,s2
    800036c8:	0067179b          	slliw	a5,a4,0x6
    800036cc:	40e787bb          	subw	a5,a5,a4
    800036d0:	00090693          	mv	a3,s2
    800036d4:	0037979b          	slliw	a5,a5,0x3
    800036d8:	00050913          	mv	s2,a0
    800036dc:	00d7853b          	addw	a0,a5,a3
    800036e0:	00098593          	mv	a1,s3
    800036e4:	00001797          	auipc	a5,0x1
    800036e8:	8d27b223          	sd	s2,-1852(a5) # 80003fa8 <Microseconds>
    800036ec:	0065151b          	slliw	a0,a0,0x6
    800036f0:	805ff0ef          	jal	ra,80002ef4 <__divdi3>
    800036f4:	00050793          	mv	a5,a0
    800036f8:	00090593          	mv	a1,s2
    800036fc:	00000517          	auipc	a0,0x0
    80003700:	63450513          	addi	a0,a0,1588 # 80003d30 <main+0xd7c>
    80003704:	00f4b023          	sd	a5,0(s1)
    80003708:	b54ff0ef          	jal	ra,80002a5c <printf>
    8000370c:	0004b583          	ld	a1,0(s1)
    80003710:	00000517          	auipc	a0,0x0
    80003714:	65850513          	addi	a0,a0,1624 # 80003d68 <main+0xdb4>
    80003718:	b44ff0ef          	jal	ra,80002a5c <printf>
    8000371c:	f3040113          	addi	sp,s0,-208
    80003720:	0c813083          	ld	ra,200(sp)
    80003724:	0c013403          	ld	s0,192(sp)
    80003728:	0b813483          	ld	s1,184(sp)
    8000372c:	0b013903          	ld	s2,176(sp)
    80003730:	0a813983          	ld	s3,168(sp)
    80003734:	0a013a03          	ld	s4,160(sp)
    80003738:	09813a83          	ld	s5,152(sp)
    8000373c:	09013b03          	ld	s6,144(sp)
    80003740:	08813b83          	ld	s7,136(sp)
    80003744:	08013c03          	ld	s8,128(sp)
    80003748:	07813c83          	ld	s9,120(sp)
    8000374c:	07013d03          	ld	s10,112(sp)
    80003750:	06813d83          	ld	s11,104(sp)
    80003754:	00000513          	li	a0,0
    80003758:	0d010113          	addi	sp,sp,208
    8000375c:	00008067          	ret
    80003760:	00300b13          	li	s6,3
    80003764:	b7dff06f          	j	800032e0 <main+0x32c>
    80003768:	00000517          	auipc	a0,0x0
    8000376c:	18050513          	addi	a0,a0,384 # 800038e8 <main+0x934>
    80003770:	aecff0ef          	jal	ra,80002a5c <printf>
    80003774:	f3843783          	ld	a5,-200(s0)
    80003778:	00000517          	auipc	a0,0x0
    8000377c:	30850513          	addi	a0,a0,776 # 80003a80 <main+0xacc>
    80003780:	0027969b          	slliw	a3,a5,0x2
    80003784:	00f686bb          	addw	a3,a3,a5
    80003788:	0016979b          	slliw	a5,a3,0x1
    8000378c:	f2f43c23          	sd	a5,-200(s0)
    80003790:	accff0ef          	jal	ra,80002a5c <printf>
    80003794:	00001797          	auipc	a5,0x1
    80003798:	83478793          	addi	a5,a5,-1996 # 80003fc8 <Done>
    8000379c:	0007a683          	lw	a3,0(a5)
    800037a0:	9a068ee3          	beqz	a3,8000315c <main+0x1a8>
    800037a4:	bc5ff06f          	j	80003368 <main+0x3b4>
    800037a8:	00000517          	auipc	a0,0x0
    800037ac:	0c050513          	addi	a0,a0,192 # 80003868 <main+0x8b4>
    800037b0:	a2dfe0ef          	jal	ra,800021dc <debug_printf>
    800037b4:	949ff06f          	j	800030fc <main+0x148>
    800037b8:	ff010113          	addi	sp,sp,-16
    800037bc:	00000517          	auipc	a0,0x0
    800037c0:	66450513          	addi	a0,a0,1636 # 80003e20 <main+0xe6c>
    800037c4:	00113423          	sd	ra,8(sp)
    800037c8:	9b4ff0ef          	jal	ra,8000297c <printstr>
    800037cc:	00813083          	ld	ra,8(sp)
    800037d0:	fff00513          	li	a0,-1
    800037d4:	01010113          	addi	sp,sp,16
    800037d8:	00008067          	ret

Disassembly of section .rodata.str1.8:

00000000800037e0 <.rodata.str1.8>:
    800037e0:	4844                	lw	s1,20(s0)
    800037e2:	5952                	lw	s2,52(sp)
    800037e4:	4e4f5453          	0x4e4f5453
    800037e8:	2045                	0x2045
    800037ea:	5250                	lw	a2,36(a2)
    800037ec:	4152474f          	fnmadd.s	fa4,ft4,fs5,fs0,rmm
    800037f0:	2c4d                	addiw	s8,s8,19
    800037f2:	5320                	lw	s0,96(a4)
    800037f4:	20454d4f          	fnmadd.s	fs10,fa0,ft4,ft4,rmm
    800037f8:	49525453          	0x49525453
    800037fc:	474e                	lw	a4,208(sp)
    800037fe:	0000                	unimp
    80003800:	56202c43          	fmadd.q	fs8,ft0,ft2,fa0,rdn
    80003804:	7265                	lui	tp,0xffff9
    80003806:	6e6f6973          	csrrsi	s2,0x6e6,30
    8000380a:	3220                	fld	fs0,96(a2)
    8000380c:	322e                	fld	ft4,232(sp)
    8000380e:	0000                	unimp
    80003810:	6844                	ld	s1,144(s0)
    80003812:	7972                	ld	s2,312(sp)
    80003814:	6e6f7473          	csrrci	s0,0x6e6,30
    80003818:	2065                	0x2065
    8000381a:	6542                	ld	a0,16(sp)
    8000381c:	636e                	ld	t1,216(sp)
    8000381e:	6d68                	ld	a0,216(a0)
    80003820:	7261                	lui	tp,0xffff8
    80003822:	56202c6b          	0x56202c6b
    80003826:	7265                	lui	tp,0xffff9
    80003828:	6e6f6973          	csrrsi	s2,0x6e6,30
    8000382c:	2520                	fld	fs0,72(a0)
    8000382e:	00000a73          	0xa73
    80003832:	0000                	unimp
    80003834:	0000                	unimp
    80003836:	0000                	unimp
    80003838:	7250                	ld	a2,160(a2)
    8000383a:	6172676f          	jal	a4,8002a650 <_tbss_end+0x23e0c>
    8000383e:	206d                	0x206d
    80003840:	706d6f63          	bltu	s10,t1,80003f5e <main+0xfaa>
    80003844:	6c69                	lui	s8,0x1a
    80003846:	6465                	lui	s0,0x19
    80003848:	7720                	ld	s0,104(a4)
    8000384a:	7469                	lui	s0,0xffffa
    8000384c:	2068                	fld	fa0,192(s0)
    8000384e:	67657227          	0x67657227
    80003852:	7369                	lui	t1,0xffffa
    80003854:	6574                	ld	a3,200(a0)
    80003856:	2772                	fld	fa4,280(sp)
    80003858:	6120                	ld	s0,64(a0)
    8000385a:	7474                	ld	a3,232(s0)
    8000385c:	6972                	ld	s2,280(sp)
    8000385e:	7562                	ld	a0,56(sp)
    80003860:	6574                	ld	a3,200(a0)
    80003862:	000a                	c.slli	zero,0x2
    80003864:	0000                	unimp
    80003866:	0000                	unimp
    80003868:	7250                	ld	a2,160(a2)
    8000386a:	6172676f          	jal	a4,8002a680 <_tbss_end+0x23e3c>
    8000386e:	206d                	0x206d
    80003870:	706d6f63          	bltu	s10,t1,80003f8e <main+0xfda>
    80003874:	6c69                	lui	s8,0x1a
    80003876:	6465                	lui	s0,0x19
    80003878:	7720                	ld	s0,104(a4)
    8000387a:	7469                	lui	s0,0xffffa
    8000387c:	6f68                	ld	a0,216(a4)
    8000387e:	7475                	lui	s0,0xffffd
    80003880:	2720                	fld	fs0,72(a4)
    80003882:	6572                	ld	a0,280(sp)
    80003884:	74736967          	0x74736967
    80003888:	7265                	lui	tp,0xffff9
    8000388a:	74612027          	fsw	ft6,1856(sp)
    8000388e:	7274                	ld	a3,224(a2)
    80003890:	6269                	lui	tp,0x1a
    80003892:	7475                	lui	s0,0xffffd
    80003894:	0a65                	addi	s4,s4,25
    80003896:	0000                	unimp
    80003898:	6472                	ld	s0,280(sp)
    8000389a:	6c637963          	bgeu	t1,t1,80003f6c <main+0xfb8>
    8000389e:	2865                	addiw	a6,a6,25
    800038a0:	0029                	c.nop	10
    800038a2:	0000                	unimp
    800038a4:	0000                	unimp
    800038a6:	0000                	unimp
    800038a8:	7355                	lui	t1,0xffff5
    800038aa:	6e69                	lui	t3,0x1a
    800038ac:	73252067          	0x73252067
    800038b0:	202c                	fld	fa1,64(s0)
    800038b2:	5a48                	lw	a0,52(a2)
    800038b4:	253d                	addiw	a0,a0,15
    800038b6:	0a64                	addi	s1,sp,284
	...
    800038c0:	7254                	ld	a3,160(a2)
    800038c2:	6979                	lui	s2,0x1e
    800038c4:	676e                	ld	a4,216(sp)
    800038c6:	2520                	fld	fs0,72(a0)
    800038c8:	2064                	fld	fs1,192(s0)
    800038ca:	7572                	ld	a0,312(sp)
    800038cc:	736e                	ld	t1,248(sp)
    800038ce:	7420                	ld	s0,104(s0)
    800038d0:	7268                	ld	a0,224(a2)
    800038d2:	6867756f          	jal	a0,8007af58 <_tbss_end+0x74714>
    800038d6:	4420                	lw	s0,72(s0)
    800038d8:	7268                	ld	a0,224(a2)
    800038da:	7379                	lui	t1,0xffffe
    800038dc:	6f74                	ld	a3,216(a4)
    800038de:	656e                	ld	a0,216(sp)
    800038e0:	0a3a                	slli	s4,s4,0xe
    800038e2:	0000                	unimp
    800038e4:	0000                	unimp
    800038e6:	0000                	unimp
    800038e8:	654d                	lui	a0,0x13
    800038ea:	7361                	lui	t1,0xffff8
    800038ec:	7275                	lui	tp,0xffffd
    800038ee:	6465                	lui	s0,0x19
    800038f0:	7420                	ld	s0,104(s0)
    800038f2:	6d69                	lui	s10,0x1a
    800038f4:	2065                	0x2065
    800038f6:	6f74                	ld	a3,216(a4)
    800038f8:	6d73206f          	j	800367ce <_tbss_end+0x2ff8a>
    800038fc:	6c61                	lui	s8,0x18
    800038fe:	206c                	fld	fa1,192(s0)
    80003900:	6f74                	ld	a3,216(a4)
    80003902:	6f20                	ld	s0,88(a4)
    80003904:	7462                	ld	s0,56(sp)
    80003906:	6961                	lui	s2,0x18
    80003908:	206e                	fld	ft0,216(sp)
    8000390a:	656d                	lui	a0,0x1b
    8000390c:	6e61                	lui	t3,0x18
    8000390e:	6e69                	lui	t3,0x1a
    80003910:	6c756667          	0x6c756667
    80003914:	7220                	ld	s0,96(a2)
    80003916:	7365                	lui	t1,0xffff9
    80003918:	6c75                	lui	s8,0x1d
    8000391a:	7374                	ld	a3,224(a4)
    8000391c:	000a                	c.slli	zero,0x2
    8000391e:	0000                	unimp
    80003920:	6946                	ld	s2,80(sp)
    80003922:	616e                	ld	sp,216(sp)
    80003924:	206c                	fld	fa1,192(s0)
    80003926:	6176                	ld	sp,344(sp)
    80003928:	756c                	ld	a1,232(a0)
    8000392a:	7365                	lui	t1,0xffff9
    8000392c:	6f20                	ld	s0,88(a4)
    8000392e:	2066                	fld	ft0,88(sp)
    80003930:	6874                	ld	a3,208(s0)
    80003932:	2065                	0x2065
    80003934:	6176                	ld	sp,344(sp)
    80003936:	6972                	ld	s2,280(sp)
    80003938:	6261                	lui	tp,0x18
    8000393a:	656c                	ld	a1,200(a0)
    8000393c:	73752073          	csrs	0x737,a0
    80003940:	6465                	lui	s0,0x19
    80003942:	6920                	ld	s0,80(a0)
    80003944:	206e                	fld	ft0,216(sp)
    80003946:	6874                	ld	a3,208(s0)
    80003948:	2065                	0x2065
    8000394a:	6562                	ld	a0,24(sp)
    8000394c:	636e                	ld	t1,216(sp)
    8000394e:	6d68                	ld	a0,216(a0)
    80003950:	7261                	lui	tp,0xffff8
    80003952:	000a3a6b          	0xa3a6b
    80003956:	0000                	unimp
    80003958:	6e49                	lui	t3,0x12
    8000395a:	5f74                	lw	a3,124(a4)
    8000395c:	626f6c47          	fmsub.d	fs8,ft10,ft6,fa2,unknown
    80003960:	203a                	fld	ft0,392(sp)
    80003962:	2020                	fld	fs0,64(s0)
    80003964:	2020                	fld	fs0,64(s0)
    80003966:	2020                	fld	fs0,64(s0)
    80003968:	2020                	fld	fs0,64(s0)
    8000396a:	2020                	fld	fs0,64(s0)
    8000396c:	2520                	fld	fs0,72(a0)
    8000396e:	0a64                	addi	s1,sp,284
	...
    80003978:	2020                	fld	fs0,64(s0)
    8000397a:	2020                	fld	fs0,64(s0)
    8000397c:	2020                	fld	fs0,64(s0)
    8000397e:	2020                	fld	fs0,64(s0)
    80003980:	756f6873          	csrrsi	a6,0x756,30
    80003984:	646c                	ld	a1,200(s0)
    80003986:	6220                	ld	s0,64(a2)
    80003988:	3a65                	addiw	s4,s4,-7
    8000398a:	2020                	fld	fs0,64(s0)
    8000398c:	2520                	fld	fs0,72(a0)
    8000398e:	0a64                	addi	s1,sp,284
	...
    80003998:	6f42                	ld	t5,16(sp)
    8000399a:	475f6c6f          	jal	s8,800fa60e <_tbss_end+0xf3dca>
    8000399e:	6f6c                	ld	a1,216(a4)
    800039a0:	3a62                	fld	fs4,56(sp)
    800039a2:	2020                	fld	fs0,64(s0)
    800039a4:	2020                	fld	fs0,64(s0)
    800039a6:	2020                	fld	fs0,64(s0)
    800039a8:	2020                	fld	fs0,64(s0)
    800039aa:	2020                	fld	fs0,64(s0)
    800039ac:	2520                	fld	fs0,72(a0)
    800039ae:	0a64                	addi	s1,sp,284
	...
    800039b8:	315f6843          	fmadd.s	fa6,ft10,fs5,ft6,unknown
    800039bc:	475f 6f6c 3a62      	0x3a626f6c475f
    800039c2:	2020                	fld	fs0,64(s0)
    800039c4:	2020                	fld	fs0,64(s0)
    800039c6:	2020                	fld	fs0,64(s0)
    800039c8:	2020                	fld	fs0,64(s0)
    800039ca:	2020                	fld	fs0,64(s0)
    800039cc:	2520                	fld	fs0,72(a0)
    800039ce:	00000a63          	beqz	zero,800039e2 <main+0xa2e>
    800039d2:	0000                	unimp
    800039d4:	0000                	unimp
    800039d6:	0000                	unimp
    800039d8:	2020                	fld	fs0,64(s0)
    800039da:	2020                	fld	fs0,64(s0)
    800039dc:	2020                	fld	fs0,64(s0)
    800039de:	2020                	fld	fs0,64(s0)
    800039e0:	756f6873          	csrrsi	a6,0x756,30
    800039e4:	646c                	ld	a1,200(s0)
    800039e6:	6220                	ld	s0,64(a2)
    800039e8:	3a65                	addiw	s4,s4,-7
    800039ea:	2020                	fld	fs0,64(s0)
    800039ec:	2520                	fld	fs0,72(a0)
    800039ee:	00000a63          	beqz	zero,80003a02 <main+0xa4e>
    800039f2:	0000                	unimp
    800039f4:	0000                	unimp
    800039f6:	0000                	unimp
    800039f8:	325f6843          	fmadd.d	fa6,ft10,ft5,ft6,unknown
    800039fc:	475f 6f6c 3a62      	0x3a626f6c475f
    80003a02:	2020                	fld	fs0,64(s0)
    80003a04:	2020                	fld	fs0,64(s0)
    80003a06:	2020                	fld	fs0,64(s0)
    80003a08:	2020                	fld	fs0,64(s0)
    80003a0a:	2020                	fld	fs0,64(s0)
    80003a0c:	2520                	fld	fs0,72(a0)
    80003a0e:	00000a63          	beqz	zero,80003a22 <main+0xa6e>
    80003a12:	0000                	unimp
    80003a14:	0000                	unimp
    80003a16:	0000                	unimp
    80003a18:	7241                	lui	tp,0xffff0
    80003a1a:	5f72                	lw	t5,60(sp)
    80003a1c:	5f31                	li	t5,-20
    80003a1e:	626f6c47          	fmsub.d	fs8,ft10,ft6,fa2,unknown
    80003a22:	3a5d385b          	0x3a5d385b
    80003a26:	2020                	fld	fs0,64(s0)
    80003a28:	2020                	fld	fs0,64(s0)
    80003a2a:	2020                	fld	fs0,64(s0)
    80003a2c:	2520                	fld	fs0,72(a0)
    80003a2e:	0a64                	addi	s1,sp,284
	...
    80003a38:	7241                	lui	tp,0xffff0
    80003a3a:	5f72                	lw	t5,60(sp)
    80003a3c:	5f32                	lw	t5,44(sp)
    80003a3e:	626f6c47          	fmsub.d	fs8,ft10,ft6,fa2,unknown
    80003a42:	5b5d385b          	0x5b5d385b
    80003a46:	203a5d37          	lui	s10,0x203a5
    80003a4a:	2020                	fld	fs0,64(s0)
    80003a4c:	2520                	fld	fs0,72(a0)
    80003a4e:	0a64                	addi	s1,sp,284
	...
    80003a58:	2020                	fld	fs0,64(s0)
    80003a5a:	2020                	fld	fs0,64(s0)
    80003a5c:	2020                	fld	fs0,64(s0)
    80003a5e:	2020                	fld	fs0,64(s0)
    80003a60:	756f6873          	csrrsi	a6,0x756,30
    80003a64:	646c                	ld	a1,200(s0)
    80003a66:	6220                	ld	s0,64(a2)
    80003a68:	3a65                	addiw	s4,s4,-7
    80003a6a:	2020                	fld	fs0,64(s0)
    80003a6c:	4e20                	lw	s0,88(a2)
    80003a6e:	6d75                	lui	s10,0x1d
    80003a70:	6562                	ld	a0,24(sp)
    80003a72:	5f72                	lw	t5,60(sp)
    80003a74:	525f664f          	fnmadd.d	fa2,ft10,ft5,fa0,unknown
    80003a78:	6e75                	lui	t3,0x1d
    80003a7a:	202b2073          	csrs	hedeleg,s6
    80003a7e:	3031                	0x3031
    80003a80:	000a                	c.slli	zero,0x2
    80003a82:	0000                	unimp
    80003a84:	0000                	unimp
    80003a86:	0000                	unimp
    80003a88:	7450                	ld	a2,168(s0)
    80003a8a:	5f72                	lw	t5,60(sp)
    80003a8c:	626f6c47          	fmsub.d	fs8,ft10,ft6,fa2,unknown
    80003a90:	3e2d                	addiw	t3,t3,-21
    80003a92:	000a                	c.slli	zero,0x2
    80003a94:	0000                	unimp
    80003a96:	0000                	unimp
    80003a98:	2020                	fld	fs0,64(s0)
    80003a9a:	7450                	ld	a2,168(s0)
    80003a9c:	5f72                	lw	t5,60(sp)
    80003a9e:	706d6f43          	fmadd.s	ft10,fs10,ft6,fa4,unknown
    80003aa2:	203a                	fld	ft0,392(sp)
    80003aa4:	2020                	fld	fs0,64(s0)
    80003aa6:	2020                	fld	fs0,64(s0)
    80003aa8:	2020                	fld	fs0,64(s0)
    80003aaa:	2020                	fld	fs0,64(s0)
    80003aac:	2520                	fld	fs0,72(a0)
    80003aae:	0a64                	addi	s1,sp,284
	...
    80003ab8:	2020                	fld	fs0,64(s0)
    80003aba:	2020                	fld	fs0,64(s0)
    80003abc:	2020                	fld	fs0,64(s0)
    80003abe:	2020                	fld	fs0,64(s0)
    80003ac0:	756f6873          	csrrsi	a6,0x756,30
    80003ac4:	646c                	ld	a1,200(s0)
    80003ac6:	6220                	ld	s0,64(a2)
    80003ac8:	3a65                	addiw	s4,s4,-7
    80003aca:	2020                	fld	fs0,64(s0)
    80003acc:	2820                	fld	fs0,80(s0)
    80003ace:	6d69                	lui	s10,0x1a
    80003ad0:	6c70                	ld	a2,216(s0)
    80003ad2:	6d65                	lui	s10,0x19
    80003ad4:	6e65                	lui	t3,0x19
    80003ad6:	6174                	ld	a3,192(a0)
    80003ad8:	6974                	ld	a3,208(a0)
    80003ada:	642d6e6f          	jal	t3,800da11c <_tbss_end+0xd38d8>
    80003ade:	7065                	c.lui	zero,0xffff9
    80003ae0:	6e65                	lui	t3,0x19
    80003ae2:	6564                	ld	s1,200(a0)
    80003ae4:	746e                	ld	s0,248(sp)
    80003ae6:	0a29                	addi	s4,s4,10
	...
    80003af0:	2020                	fld	fs0,64(s0)
    80003af2:	6944                	ld	s1,144(a0)
    80003af4:	3a726373          	csrrsi	t1,0x3a7,4
    80003af8:	2020                	fld	fs0,64(s0)
    80003afa:	2020                	fld	fs0,64(s0)
    80003afc:	2020                	fld	fs0,64(s0)
    80003afe:	2020                	fld	fs0,64(s0)
    80003b00:	2020                	fld	fs0,64(s0)
    80003b02:	2020                	fld	fs0,64(s0)
    80003b04:	2520                	fld	fs0,72(a0)
    80003b06:	0a64                	addi	s1,sp,284
	...
    80003b10:	2020                	fld	fs0,64(s0)
    80003b12:	6e45                	lui	t3,0x11
    80003b14:	6d75                	lui	s10,0x1d
    80003b16:	435f 6d6f 3a70      	0x3a706d6f435f
    80003b1c:	2020                	fld	fs0,64(s0)
    80003b1e:	2020                	fld	fs0,64(s0)
    80003b20:	2020                	fld	fs0,64(s0)
    80003b22:	2020                	fld	fs0,64(s0)
    80003b24:	2520                	fld	fs0,72(a0)
    80003b26:	0a64                	addi	s1,sp,284
	...
    80003b30:	2020                	fld	fs0,64(s0)
    80003b32:	6e49                	lui	t3,0x12
    80003b34:	5f74                	lw	a3,124(a4)
    80003b36:	706d6f43          	fmadd.s	ft10,fs10,ft6,fa4,unknown
    80003b3a:	203a                	fld	ft0,392(sp)
    80003b3c:	2020                	fld	fs0,64(s0)
    80003b3e:	2020                	fld	fs0,64(s0)
    80003b40:	2020                	fld	fs0,64(s0)
    80003b42:	2020                	fld	fs0,64(s0)
    80003b44:	2520                	fld	fs0,72(a0)
    80003b46:	0a64                	addi	s1,sp,284
	...
    80003b50:	2020                	fld	fs0,64(s0)
    80003b52:	5f727453          	0x5f727453
    80003b56:	706d6f43          	fmadd.s	ft10,fs10,ft6,fa4,unknown
    80003b5a:	203a                	fld	ft0,392(sp)
    80003b5c:	2020                	fld	fs0,64(s0)
    80003b5e:	2020                	fld	fs0,64(s0)
    80003b60:	2020                	fld	fs0,64(s0)
    80003b62:	2020                	fld	fs0,64(s0)
    80003b64:	2520                	fld	fs0,72(a0)
    80003b66:	00000a73          	0xa73
    80003b6a:	0000                	unimp
    80003b6c:	0000                	unimp
    80003b6e:	0000                	unimp
    80003b70:	2020                	fld	fs0,64(s0)
    80003b72:	2020                	fld	fs0,64(s0)
    80003b74:	2020                	fld	fs0,64(s0)
    80003b76:	2020                	fld	fs0,64(s0)
    80003b78:	756f6873          	csrrsi	a6,0x756,30
    80003b7c:	646c                	ld	a1,200(s0)
    80003b7e:	6220                	ld	s0,64(a2)
    80003b80:	3a65                	addiw	s4,s4,-7
    80003b82:	2020                	fld	fs0,64(s0)
    80003b84:	4420                	lw	s0,72(s0)
    80003b86:	5248                	lw	a0,36(a2)
    80003b88:	5359                	li	t1,-10
    80003b8a:	4f54                	lw	a3,28(a4)
    80003b8c:	454e                	lw	a0,208(sp)
    80003b8e:	5020                	lw	s0,96(s0)
    80003b90:	4f52                	lw	t5,20(sp)
    80003b92:	4d415247          	0x4d415247
    80003b96:	202c                	fld	fa1,64(s0)
    80003b98:	454d4f53          	0x454d4f53
    80003b9c:	5320                	lw	s0,96(a4)
    80003b9e:	5254                	lw	a3,36(a2)
    80003ba0:	4e49                	li	t3,18
    80003ba2:	00000a47          	fmsub.s	fs4,ft0,ft0,ft0,rne
    80003ba6:	0000                	unimp
    80003ba8:	654e                	ld	a0,208(sp)
    80003baa:	7478                	ld	a4,232(s0)
    80003bac:	505f 7274 475f      	0x475f7274505f
    80003bb2:	6f6c                	ld	a1,216(a4)
    80003bb4:	2d62                	fld	fs10,24(sp)
    80003bb6:	0a3e                	slli	s4,s4,0xf
	...
    80003bc0:	2020                	fld	fs0,64(s0)
    80003bc2:	2020                	fld	fs0,64(s0)
    80003bc4:	2020                	fld	fs0,64(s0)
    80003bc6:	2020                	fld	fs0,64(s0)
    80003bc8:	756f6873          	csrrsi	a6,0x756,30
    80003bcc:	646c                	ld	a1,200(s0)
    80003bce:	6220                	ld	s0,64(a2)
    80003bd0:	3a65                	addiw	s4,s4,-7
    80003bd2:	2020                	fld	fs0,64(s0)
    80003bd4:	2820                	fld	fs0,80(s0)
    80003bd6:	6d69                	lui	s10,0x1a
    80003bd8:	6c70                	ld	a2,216(s0)
    80003bda:	6d65                	lui	s10,0x19
    80003bdc:	6e65                	lui	t3,0x19
    80003bde:	6174                	ld	a3,192(a0)
    80003be0:	6974                	ld	a3,208(a0)
    80003be2:	642d6e6f          	jal	t3,800da224 <_tbss_end+0xd39e0>
    80003be6:	7065                	c.lui	zero,0xffff9
    80003be8:	6e65                	lui	t3,0x19
    80003bea:	6564                	ld	s1,200(a0)
    80003bec:	746e                	ld	s0,248(sp)
    80003bee:	2c29                	addiw	s8,s8,10
    80003bf0:	7320                	ld	s0,96(a4)
    80003bf2:	6d61                	lui	s10,0x18
    80003bf4:	2065                	0x2065
    80003bf6:	7361                	lui	t1,0xffff8
    80003bf8:	6120                	ld	s0,64(a0)
    80003bfa:	6f62                	ld	t5,24(sp)
    80003bfc:	6576                	ld	a0,344(sp)
    80003bfe:	000a                	c.slli	zero,0x2
    80003c00:	6e49                	lui	t3,0x12
    80003c02:	5f74                	lw	a3,124(a4)
    80003c04:	5f31                	li	t5,-20
    80003c06:	6f4c                	ld	a1,152(a4)
    80003c08:	20203a63          	0x20203a63
    80003c0c:	2020                	fld	fs0,64(s0)
    80003c0e:	2020                	fld	fs0,64(s0)
    80003c10:	2020                	fld	fs0,64(s0)
    80003c12:	2020                	fld	fs0,64(s0)
    80003c14:	2520                	fld	fs0,72(a0)
    80003c16:	0a64                	addi	s1,sp,284
	...
    80003c20:	6e49                	lui	t3,0x12
    80003c22:	5f74                	lw	a3,124(a4)
    80003c24:	5f32                	lw	t5,44(sp)
    80003c26:	6f4c                	ld	a1,152(a4)
    80003c28:	20203a63          	0x20203a63
    80003c2c:	2020                	fld	fs0,64(s0)
    80003c2e:	2020                	fld	fs0,64(s0)
    80003c30:	2020                	fld	fs0,64(s0)
    80003c32:	2020                	fld	fs0,64(s0)
    80003c34:	2520                	fld	fs0,72(a0)
    80003c36:	0a64                	addi	s1,sp,284
	...
    80003c40:	6e49                	lui	t3,0x12
    80003c42:	5f74                	lw	a3,124(a4)
    80003c44:	6f4c5f33          	0x6f4c5f33
    80003c48:	20203a63          	0x20203a63
    80003c4c:	2020                	fld	fs0,64(s0)
    80003c4e:	2020                	fld	fs0,64(s0)
    80003c50:	2020                	fld	fs0,64(s0)
    80003c52:	2020                	fld	fs0,64(s0)
    80003c54:	2520                	fld	fs0,72(a0)
    80003c56:	0a64                	addi	s1,sp,284
	...
    80003c60:	6e45                	lui	t3,0x11
    80003c62:	6d75                	lui	s10,0x1d
    80003c64:	4c5f 636f 203a      	0x203a636f4c5f
    80003c6a:	2020                	fld	fs0,64(s0)
    80003c6c:	2020                	fld	fs0,64(s0)
    80003c6e:	2020                	fld	fs0,64(s0)
    80003c70:	2020                	fld	fs0,64(s0)
    80003c72:	2020                	fld	fs0,64(s0)
    80003c74:	2520                	fld	fs0,72(a0)
    80003c76:	0a64                	addi	s1,sp,284
	...
    80003c80:	5f727453          	0x5f727453
    80003c84:	5f31                	li	t5,-20
    80003c86:	6f4c                	ld	a1,152(a4)
    80003c88:	20203a63          	0x20203a63
    80003c8c:	2020                	fld	fs0,64(s0)
    80003c8e:	2020                	fld	fs0,64(s0)
    80003c90:	2020                	fld	fs0,64(s0)
    80003c92:	2020                	fld	fs0,64(s0)
    80003c94:	2520                	fld	fs0,72(a0)
    80003c96:	00000a73          	0xa73
    80003c9a:	0000                	unimp
    80003c9c:	0000                	unimp
    80003c9e:	0000                	unimp
    80003ca0:	2020                	fld	fs0,64(s0)
    80003ca2:	2020                	fld	fs0,64(s0)
    80003ca4:	2020                	fld	fs0,64(s0)
    80003ca6:	2020                	fld	fs0,64(s0)
    80003ca8:	756f6873          	csrrsi	a6,0x756,30
    80003cac:	646c                	ld	a1,200(s0)
    80003cae:	6220                	ld	s0,64(a2)
    80003cb0:	3a65                	addiw	s4,s4,-7
    80003cb2:	2020                	fld	fs0,64(s0)
    80003cb4:	4420                	lw	s0,72(s0)
    80003cb6:	5248                	lw	a0,36(a2)
    80003cb8:	5359                	li	t1,-10
    80003cba:	4f54                	lw	a3,28(a4)
    80003cbc:	454e                	lw	a0,208(sp)
    80003cbe:	5020                	lw	s0,96(s0)
    80003cc0:	4f52                	lw	t5,20(sp)
    80003cc2:	4d415247          	0x4d415247
    80003cc6:	202c                	fld	fa1,64(s0)
    80003cc8:	2731                	addiw	a4,a4,12
    80003cca:	53205453          	0x53205453
    80003cce:	5254                	lw	a3,36(a2)
    80003cd0:	4e49                	li	t3,18
    80003cd2:	00000a47          	fmsub.s	fs4,ft0,ft0,ft0,rne
    80003cd6:	0000                	unimp
    80003cd8:	5f727453          	0x5f727453
    80003cdc:	5f32                	lw	t5,44(sp)
    80003cde:	6f4c                	ld	a1,152(a4)
    80003ce0:	20203a63          	0x20203a63
    80003ce4:	2020                	fld	fs0,64(s0)
    80003ce6:	2020                	fld	fs0,64(s0)
    80003ce8:	2020                	fld	fs0,64(s0)
    80003cea:	2020                	fld	fs0,64(s0)
    80003cec:	2520                	fld	fs0,72(a0)
    80003cee:	00000a73          	0xa73
    80003cf2:	0000                	unimp
    80003cf4:	0000                	unimp
    80003cf6:	0000                	unimp
    80003cf8:	2020                	fld	fs0,64(s0)
    80003cfa:	2020                	fld	fs0,64(s0)
    80003cfc:	2020                	fld	fs0,64(s0)
    80003cfe:	2020                	fld	fs0,64(s0)
    80003d00:	756f6873          	csrrsi	a6,0x756,30
    80003d04:	646c                	ld	a1,200(s0)
    80003d06:	6220                	ld	s0,64(a2)
    80003d08:	3a65                	addiw	s4,s4,-7
    80003d0a:	2020                	fld	fs0,64(s0)
    80003d0c:	4420                	lw	s0,72(s0)
    80003d0e:	5248                	lw	a0,36(a2)
    80003d10:	5359                	li	t1,-10
    80003d12:	4f54                	lw	a3,28(a4)
    80003d14:	454e                	lw	a0,208(sp)
    80003d16:	5020                	lw	s0,96(s0)
    80003d18:	4f52                	lw	t5,20(sp)
    80003d1a:	4d415247          	0x4d415247
    80003d1e:	202c                	fld	fa1,64(s0)
    80003d20:	2732                	fld	fa4,264(sp)
    80003d22:	444e                	lw	s0,208(sp)
    80003d24:	5320                	lw	s0,96(a4)
    80003d26:	5254                	lw	a3,36(a2)
    80003d28:	4e49                	li	t3,18
    80003d2a:	00000a47          	fmsub.s	fs4,ft0,ft0,ft0,rne
    80003d2e:	0000                	unimp
    80003d30:	694d                	lui	s2,0x13
    80003d32:	736f7263          	bgeu	t5,s6,80004456 <Arr_2_Glob+0x39e>
    80003d36:	6365                	lui	t1,0x19
    80003d38:	73646e6f          	jal	t3,8004a46e <_tbss_end+0x43c2a>
    80003d3c:	6620                	ld	s0,72(a2)
    80003d3e:	6f20726f          	jal	tp,8000b430 <_tbss_end+0x4bec>
    80003d42:	656e                	ld	a0,216(sp)
    80003d44:	7220                	ld	s0,96(a2)
    80003d46:	6e75                	lui	t3,0x1d
    80003d48:	7420                	ld	s0,104(s0)
    80003d4a:	7268                	ld	a0,224(a2)
    80003d4c:	6867756f          	jal	a0,8007b3d2 <_tbss_end+0x74b8e>
    80003d50:	4420                	lw	s0,72(s0)
    80003d52:	7268                	ld	a0,224(a2)
    80003d54:	7379                	lui	t1,0xffffe
    80003d56:	6f74                	ld	a3,216(a4)
    80003d58:	656e                	ld	a0,216(sp)
    80003d5a:	203a                	fld	ft0,392(sp)
    80003d5c:	6c25                	lui	s8,0x9
    80003d5e:	0a64                	addi	s1,sp,284
	...
    80003d68:	6844                	ld	s1,144(s0)
    80003d6a:	7972                	ld	s2,312(sp)
    80003d6c:	6e6f7473          	csrrci	s0,0x6e6,30
    80003d70:	7365                	lui	t1,0xffff9
    80003d72:	7020                	ld	s0,96(s0)
    80003d74:	7265                	lui	tp,0xffff9
    80003d76:	5320                	lw	s0,96(a4)
    80003d78:	6365                	lui	t1,0x19
    80003d7a:	3a646e6f          	jal	t3,8004a120 <_tbss_end+0x438dc>
    80003d7e:	2020                	fld	fs0,64(s0)
    80003d80:	2020                	fld	fs0,64(s0)
    80003d82:	2020                	fld	fs0,64(s0)
    80003d84:	2020                	fld	fs0,64(s0)
    80003d86:	2020                	fld	fs0,64(s0)
    80003d88:	2020                	fld	fs0,64(s0)
    80003d8a:	2020                	fld	fs0,64(s0)
    80003d8c:	2020                	fld	fs0,64(s0)
    80003d8e:	2020                	fld	fs0,64(s0)
    80003d90:	2020                	fld	fs0,64(s0)
    80003d92:	2020                	fld	fs0,64(s0)
    80003d94:	6c25                	lui	s8,0x9
    80003d96:	0a64                	addi	s1,sp,284
	...
    80003da0:	4844                	lw	s1,20(s0)
    80003da2:	5952                	lw	s2,52(sp)
    80003da4:	4e4f5453          	0x4e4f5453
    80003da8:	2045                	0x2045
    80003daa:	5250                	lw	a2,36(a2)
    80003dac:	4152474f          	fnmadd.s	fa4,ft4,fs5,fs0,rmm
    80003db0:	2c4d                	addiw	s8,s8,19
    80003db2:	3120                	fld	fs0,96(a0)
    80003db4:	20545327          	0x20545327
    80003db8:	49525453          	0x49525453
    80003dbc:	474e                	lw	a4,208(sp)
    80003dbe:	0000                	unimp
    80003dc0:	4844                	lw	s1,20(s0)
    80003dc2:	5952                	lw	s2,52(sp)
    80003dc4:	4e4f5453          	0x4e4f5453
    80003dc8:	2045                	0x2045
    80003dca:	5250                	lw	a2,36(a2)
    80003dcc:	4152474f          	fnmadd.s	fa4,ft4,fs5,fs0,rmm
    80003dd0:	2c4d                	addiw	s8,s8,19
    80003dd2:	3220                	fld	fs0,96(a2)
    80003dd4:	20444e27          	fsq	ft4,540(s0) # 1921c <buflen.2991+0x191dc>
    80003dd8:	49525453          	0x49525453
    80003ddc:	474e                	lw	a4,208(sp)
    80003dde:	0000                	unimp
    80003de0:	4844                	lw	s1,20(s0)
    80003de2:	5952                	lw	s2,52(sp)
    80003de4:	4e4f5453          	0x4e4f5453
    80003de8:	2045                	0x2045
    80003dea:	5250                	lw	a2,36(a2)
    80003dec:	4152474f          	fnmadd.s	fa4,ft4,fs5,fs0,rmm
    80003df0:	2c4d                	addiw	s8,s8,19
    80003df2:	3320                	fld	fs0,96(a4)
    80003df4:	20445227          	0x20445227
    80003df8:	49525453          	0x49525453
    80003dfc:	474e                	lw	a4,208(sp)
    80003dfe:	0000                	unimp
    80003e00:	6e28                	ld	a0,88(a2)
    80003e02:	6c75                	lui	s8,0x1d
    80003e04:	296c                	fld	fa1,208(a0)
    80003e06:	0000                	unimp
    80003e08:	636d                	lui	t1,0x1b
    80003e0a:	6379                	lui	t1,0x1e
    80003e0c:	656c                	ld	a1,200(a0)
    80003e0e:	0000                	unimp
    80003e10:	696d                	lui	s2,0x1b
    80003e12:	736e                	ld	t1,248(sp)
    80003e14:	7274                	ld	a3,224(a2)
    80003e16:	7465                	lui	s0,0xffff9
	...
    80003e20:	6d49                	lui	s10,0x12
    80003e22:	6c70                	ld	a2,216(s0)
    80003e24:	6d65                	lui	s10,0x19
    80003e26:	6e65                	lui	t3,0x19
    80003e28:	2074                	fld	fa3,192(s0)
    80003e2a:	616d                	addi	sp,sp,240
    80003e2c:	6e69                	lui	t3,0x1a
    80003e2e:	2928                	fld	fa0,80(a0)
    80003e30:	202c                	fld	fa1,64(s0)
    80003e32:	6f66                	ld	t5,88(sp)
    80003e34:	000a216f          	jal	sp,800a5e34 <_tbss_end+0x9f5f0>
    80003e38:	7325                	lui	t1,0xfffe9
    80003e3a:	3d20                	fld	fs0,120(a0)
    80003e3c:	2520                	fld	fs0,72(a0)
    80003e3e:	0a64                	addi	s1,sp,284
	...

Disassembly of section .rodata:

0000000080003e48 <__global_pointer$-0x958>:
    80003e48:	e6f0                	sd	a2,200(a3)
    80003e4a:	ffff                	0xffff
    80003e4c:	e68c                	sd	a1,8(a3)
    80003e4e:	ffff                	0xffff
    80003e50:	e6fc                	sd	a5,200(a3)
    80003e52:	ffff                	0xffff
    80003e54:	e68c                	sd	a1,8(a3)
    80003e56:	ffff                	0xffff
    80003e58:	e68c                	sd	a1,8(a3)
    80003e5a:	ffff                	0xffff
    80003e5c:	e68c                	sd	a1,8(a3)
    80003e5e:	ffff                	0xffff
    80003e60:	e68c                	sd	a1,8(a3)
    80003e62:	ffff                	0xffff
    80003e64:	e70c                	sd	a1,8(a4)
    80003e66:	ffff                	0xffff
    80003e68:	e68c                	sd	a1,8(a3)
    80003e6a:	ffff                	0xffff
    80003e6c:	e68c                	sd	a1,8(a3)
    80003e6e:	ffff                	0xffff
    80003e70:	e670                	sd	a2,200(a2)
    80003e72:	ffff                	0xffff
    80003e74:	e930                	sd	a2,80(a0)
    80003e76:	ffff                	0xffff
    80003e78:	e68c                	sd	a1,8(a3)
    80003e7a:	ffff                	0xffff
    80003e7c:	e670                	sd	a2,200(a2)
    80003e7e:	ffff                	0xffff
    80003e80:	e6a0                	sd	s0,72(a3)
    80003e82:	ffff                	0xffff
    80003e84:	e6a0                	sd	s0,72(a3)
    80003e86:	ffff                	0xffff
    80003e88:	e6a0                	sd	s0,72(a3)
    80003e8a:	ffff                	0xffff
    80003e8c:	e6a0                	sd	s0,72(a3)
    80003e8e:	ffff                	0xffff
    80003e90:	e6a0                	sd	s0,72(a3)
    80003e92:	ffff                	0xffff
    80003e94:	e6a0                	sd	s0,72(a3)
    80003e96:	ffff                	0xffff
    80003e98:	e6a0                	sd	s0,72(a3)
    80003e9a:	ffff                	0xffff
    80003e9c:	e6a0                	sd	s0,72(a3)
    80003e9e:	ffff                	0xffff
    80003ea0:	e6a0                	sd	s0,72(a3)
    80003ea2:	ffff                	0xffff
    80003ea4:	e68c                	sd	a1,8(a3)
    80003ea6:	ffff                	0xffff
    80003ea8:	e68c                	sd	a1,8(a3)
    80003eaa:	ffff                	0xffff
    80003eac:	e68c                	sd	a1,8(a3)
    80003eae:	ffff                	0xffff
    80003eb0:	e68c                	sd	a1,8(a3)
    80003eb2:	ffff                	0xffff
    80003eb4:	e68c                	sd	a1,8(a3)
    80003eb6:	ffff                	0xffff
    80003eb8:	e68c                	sd	a1,8(a3)
    80003eba:	ffff                	0xffff
    80003ebc:	e68c                	sd	a1,8(a3)
    80003ebe:	ffff                	0xffff
    80003ec0:	e68c                	sd	a1,8(a3)
    80003ec2:	ffff                	0xffff
    80003ec4:	e68c                	sd	a1,8(a3)
    80003ec6:	ffff                	0xffff
    80003ec8:	e68c                	sd	a1,8(a3)
    80003eca:	ffff                	0xffff
    80003ecc:	e68c                	sd	a1,8(a3)
    80003ece:	ffff                	0xffff
    80003ed0:	e68c                	sd	a1,8(a3)
    80003ed2:	ffff                	0xffff
    80003ed4:	e68c                	sd	a1,8(a3)
    80003ed6:	ffff                	0xffff
    80003ed8:	e68c                	sd	a1,8(a3)
    80003eda:	ffff                	0xffff
    80003edc:	e68c                	sd	a1,8(a3)
    80003ede:	ffff                	0xffff
    80003ee0:	e68c                	sd	a1,8(a3)
    80003ee2:	ffff                	0xffff
    80003ee4:	e68c                	sd	a1,8(a3)
    80003ee6:	ffff                	0xffff
    80003ee8:	e68c                	sd	a1,8(a3)
    80003eea:	ffff                	0xffff
    80003eec:	e68c                	sd	a1,8(a3)
    80003eee:	ffff                	0xffff
    80003ef0:	e68c                	sd	a1,8(a3)
    80003ef2:	ffff                	0xffff
    80003ef4:	e68c                	sd	a1,8(a3)
    80003ef6:	ffff                	0xffff
    80003ef8:	e68c                	sd	a1,8(a3)
    80003efa:	ffff                	0xffff
    80003efc:	e68c                	sd	a1,8(a3)
    80003efe:	ffff                	0xffff
    80003f00:	e68c                	sd	a1,8(a3)
    80003f02:	ffff                	0xffff
    80003f04:	e68c                	sd	a1,8(a3)
    80003f06:	ffff                	0xffff
    80003f08:	e68c                	sd	a1,8(a3)
    80003f0a:	ffff                	0xffff
    80003f0c:	e68c                	sd	a1,8(a3)
    80003f0e:	ffff                	0xffff
    80003f10:	e68c                	sd	a1,8(a3)
    80003f12:	ffff                	0xffff
    80003f14:	e68c                	sd	a1,8(a3)
    80003f16:	ffff                	0xffff
    80003f18:	e68c                	sd	a1,8(a3)
    80003f1a:	ffff                	0xffff
    80003f1c:	e68c                	sd	a1,8(a3)
    80003f1e:	ffff                	0xffff
    80003f20:	e68c                	sd	a1,8(a3)
    80003f22:	ffff                	0xffff
    80003f24:	e68c                	sd	a1,8(a3)
    80003f26:	ffff                	0xffff
    80003f28:	e68c                	sd	a1,8(a3)
    80003f2a:	ffff                	0xffff
    80003f2c:	e68c                	sd	a1,8(a3)
    80003f2e:	ffff                	0xffff
    80003f30:	e68c                	sd	a1,8(a3)
    80003f32:	ffff                	0xffff
    80003f34:	e68c                	sd	a1,8(a3)
    80003f36:	ffff                	0xffff
    80003f38:	e68c                	sd	a1,8(a3)
    80003f3a:	ffff                	0xffff
    80003f3c:	e68c                	sd	a1,8(a3)
    80003f3e:	ffff                	0xffff
    80003f40:	e68c                	sd	a1,8(a3)
    80003f42:	ffff                	0xffff
    80003f44:	e68c                	sd	a1,8(a3)
    80003f46:	ffff                	0xffff
    80003f48:	e94c                	sd	a1,144(a0)
    80003f4a:	ffff                	0xffff
    80003f4c:	e808                	sd	a0,16(s0)
    80003f4e:	ffff                	0xffff
    80003f50:	e68c                	sd	a1,8(a3)
    80003f52:	ffff                	0xffff
    80003f54:	e68c                	sd	a1,8(a3)
    80003f56:	ffff                	0xffff
    80003f58:	e68c                	sd	a1,8(a3)
    80003f5a:	ffff                	0xffff
    80003f5c:	e68c                	sd	a1,8(a3)
    80003f5e:	ffff                	0xffff
    80003f60:	e68c                	sd	a1,8(a3)
    80003f62:	ffff                	0xffff
    80003f64:	e68c                	sd	a1,8(a3)
    80003f66:	ffff                	0xffff
    80003f68:	e68c                	sd	a1,8(a3)
    80003f6a:	ffff                	0xffff
    80003f6c:	e844                	sd	s1,144(s0)
    80003f6e:	ffff                	0xffff
    80003f70:	e68c                	sd	a1,8(a3)
    80003f72:	ffff                	0xffff
    80003f74:	e68c                	sd	a1,8(a3)
    80003f76:	ffff                	0xffff
    80003f78:	e994                	sd	a3,16(a1)
    80003f7a:	ffff                	0xffff
    80003f7c:	e728                	sd	a0,72(a4)
    80003f7e:	ffff                	0xffff
    80003f80:	e68c                	sd	a1,8(a3)
    80003f82:	ffff                	0xffff
    80003f84:	e68c                	sd	a1,8(a3)
    80003f86:	ffff                	0xffff
    80003f88:	e87c                	sd	a5,208(s0)
    80003f8a:	ffff                	0xffff
    80003f8c:	e68c                	sd	a1,8(a3)
    80003f8e:	ffff                	0xffff
    80003f90:	e99c                	sd	a5,16(a1)
    80003f92:	ffff                	0xffff
    80003f94:	e68c                	sd	a1,8(a3)
    80003f96:	ffff                	0xffff
    80003f98:	e68c                	sd	a1,8(a3)
    80003f9a:	ffff                	0xffff
    80003f9c:	e854                	sd	a3,144(s0)
    80003f9e:	ffff                	0xffff

Disassembly of section .sbss:

0000000080003fa0 <Dhrystones_Per_Second>:
	...

0000000080003fa8 <Microseconds>:
	...

0000000080003fb0 <User_Time>:
	...

0000000080003fb8 <End_Time>:
	...

0000000080003fc0 <Begin_Time>:
	...

0000000080003fc8 <Done>:
    80003fc8:	0000                	unimp
	...

0000000080003fcc <Reg>:
    80003fcc:	0000                	unimp
	...

0000000080003fd0 <Ch_2_Glob>:
	...

0000000080003fd1 <Ch_1_Glob>:
    80003fd1:	0000                	unimp
	...

0000000080003fd4 <Bool_Glob>:
    80003fd4:	0000                	unimp
	...

0000000080003fd8 <Int_Glob>:
	...

0000000080003fe0 <Next_Ptr_Glob>:
	...

0000000080003fe8 <Ptr_Glob>:
	...

Disassembly of section .bss:

0000000080003ff0 <Arr_1_Glob>:
	...

00000000800040b8 <Arr_2_Glob>:
	...

00000000800067c8 <counters>:
	...

00000000800067d8 <counter_names>:
	...

Disassembly of section .tbss:

0000000080006800 <buflen.2991+0x800067c0>:
	...

Disassembly of section .comment:

0000000000000000 <.comment>:
   0:	3a434347          	fmsub.d	ft6,ft6,ft4,ft7,rmm
   4:	2820                	fld	fs0,80(s0)
   6:	29554e47          	fmsub.s	ft8,fa0,fs5,ft5,rmm
   a:	3920                	fld	fs0,112(a0)
   c:	322e                	fld	ft4,232(sp)
   e:	302e                	fld	ft0,232(sp)
	...

Disassembly of section .riscv.attributes:

0000000000000000 <.riscv.attributes>:
   0:	1b41                	addi	s6,s6,-16
   2:	0000                	unimp
   4:	7200                	ld	s0,32(a2)
   6:	7369                	lui	t1,0xffffa
   8:	01007663          	bgeu	zero,a6,14 <buf.2990+0x14>
   c:	0011                	c.nop	4
   e:	0000                	unimp
  10:	1004                	addi	s1,sp,32
  12:	7205                	lui	tp,0xfffe1
  14:	3676                	fld	fa2,376(sp)
  16:	6934                	ld	a3,80(a0)
  18:	7032                	0x7032
  1a:	0030                	addi	a2,sp,8

Disassembly of section .debug_line:

0000000000000000 <.debug_line>:
   0:	00000093          	li	ra,0
   4:	00490003          	lb	zero,4(s2) # 1b004 <buflen.2991+0x1afc4>
   8:	0000                	unimp
   a:	0101                	addi	sp,sp,0
   c:	000d0efb          	0xd0efb
  10:	0101                	addi	sp,sp,0
  12:	0101                	addi	sp,sp,0
  14:	0000                	unimp
  16:	0100                	addi	s0,sp,128
  18:	0000                	unimp
  1a:	2e01                	sext.w	t3,t3
  1c:	2f2e                	fld	ft10,200(sp)
  1e:	2e2e                	fld	ft8,200(sp)
  20:	2f2e2e2f          	0x2f2e2e2f
  24:	2e2e                	fld	ft8,200(sp)
  26:	7369722f          	0x7369722f
  2a:	672d7663          	bgeu	s10,s2,696 <buflen.2991+0x656>
  2e:	6c2f6363          	bltu	t5,sp,6f4 <buflen.2991+0x6b4>
  32:	6269                	lui	tp,0x1a
  34:	2f636367          	0x2f636367
  38:	666e6f63          	bltu	t3,t1,6b6 <buflen.2991+0x676>
  3c:	6769                	lui	a4,0x1a
  3e:	7369722f          	0x7369722f
  42:	00007663          	bgeu	zero,zero,4e <buflen.2991+0xe>
  46:	756d                	lui	a0,0xffffb
  48:	646c                	ld	a1,200(s0)
  4a:	3369                	addiw	t1,t1,-6
  4c:	532e                	lw	t1,232(sp)
  4e:	0100                	addi	s0,sp,128
  50:	0000                	unimp
  52:	0000                	unimp
  54:	0209                	addi	tp,tp,2
  56:	2e90                	fld	fa2,24(a3)
  58:	8000                	0x8000
  5a:	0000                	unimp
  5c:	0000                	unimp
  5e:	03012403          	lw	s0,48(sp)
  62:	0901                	addi	s2,s2,0
  64:	0004                	0x4
  66:	0301                	addi	t1,t1,0
  68:	0902                	c.slli64	s2
  6a:	0004                	0x4
  6c:	0301                	addi	t1,t1,0
  6e:	0901                	addi	s2,s2,0
  70:	0004                	0x4
  72:	0301                	addi	t1,t1,0
  74:	0901                	addi	s2,s2,0
  76:	0004                	0x4
  78:	0301                	addi	t1,t1,0
  7a:	0902                	c.slli64	s2
  7c:	0004                	0x4
  7e:	0301                	addi	t1,t1,0
  80:	0901                	addi	s2,s2,0
  82:	0004                	0x4
  84:	0301                	addi	t1,t1,0
  86:	0901                	addi	s2,s2,0
  88:	0004                	0x4
  8a:	0301                	addi	t1,t1,0
  8c:	0901                	addi	s2,s2,0
  8e:	0004                	0x4
  90:	0901                	addi	s2,s2,0
  92:	0004                	0x4
  94:	0100                	addi	s0,sp,128
  96:	da01                	beqz	a2,ffffffffffffffa6 <_tbss_end+0xffffffff7fff9762>
  98:	0001                	nop
  9a:	0300                	addi	s0,sp,384
  9c:	4600                	lw	s0,8(a2)
  9e:	0000                	unimp
  a0:	0100                	addi	s0,sp,128
  a2:	fb01                	bnez	a4,ffffffffffffffb2 <_tbss_end+0xffffffff7fff976e>
  a4:	0d0e                	slli	s10,s10,0x3
  a6:	0100                	addi	s0,sp,128
  a8:	0101                	addi	sp,sp,0
  aa:	0001                	nop
  ac:	0000                	unimp
  ae:	0001                	nop
  b0:	0100                	addi	s0,sp,128
  b2:	2e2e                	fld	ft8,200(sp)
  b4:	2f2e2e2f          	0x2f2e2e2f
  b8:	2e2e                	fld	ft8,200(sp)
  ba:	2f2e2e2f          	0x2f2e2e2f
  be:	6972                	ld	s2,280(sp)
  c0:	2d766373          	csrrsi	t1,0x2d7,12
  c4:	2f636367          	0x2f636367
  c8:	696c                	ld	a1,208(a0)
  ca:	6762                	ld	a4,24(sp)
  cc:	632f6363          	bltu	t5,s2,6f2 <buflen.2991+0x6b2>
  d0:	69666e6f          	jal	t3,66766 <buflen.2991+0x66726>
  d4:	69722f67          	0x69722f67
  d8:	00766373          	csrrsi	t1,0x7,12
  dc:	6400                	ld	s0,8(s0)
  de:	7669                	lui	a2,0xffffa
  e0:	532e                	lw	t1,232(sp)
  e2:	0100                	addi	s0,sp,128
  e4:	0000                	unimp
  e6:	0000                	unimp
  e8:	0209                	addi	tp,tp,2
  ea:	2eb4                	fld	fa3,88(a3)
  ec:	8000                	0x8000
  ee:	0000                	unimp
  f0:	0000                	unimp
  f2:	03012703          	lw	a4,48(sp)
  f6:	0901                	addi	s2,s2,0
  f8:	0004                	0x4
  fa:	0301                	addi	t1,t1,0
  fc:	0901                	addi	s2,s2,0
  fe:	0004                	0x4
 100:	0301                	addi	t1,t1,0
 102:	0901                	addi	s2,s2,0
 104:	0004                	0x4
 106:	0301                	addi	t1,t1,0
 108:	0901                	addi	s2,s2,0
 10a:	0004                	0x4
 10c:	0301                	addi	t1,t1,0
 10e:	0901                	addi	s2,s2,0
 110:	0004                	0x4
 112:	0301                	addi	t1,t1,0
 114:	0905                	addi	s2,s2,1
 116:	0004                	0x4
 118:	0301                	addi	t1,t1,0
 11a:	0901                	addi	s2,s2,0
 11c:	0004                	0x4
 11e:	0301                	addi	t1,t1,0
 120:	0901                	addi	s2,s2,0
 122:	0004                	0x4
 124:	0301                	addi	t1,t1,0
 126:	0901                	addi	s2,s2,0
 128:	0004                	0x4
 12a:	0301                	addi	t1,t1,0
 12c:	0901                	addi	s2,s2,0
 12e:	0004                	0x4
 130:	0301                	addi	t1,t1,0
 132:	0901                	addi	s2,s2,0
 134:	0004                	0x4
 136:	0301                	addi	t1,t1,0
 138:	0901                	addi	s2,s2,0
 13a:	0004                	0x4
 13c:	0301                	addi	t1,t1,0
 13e:	0901                	addi	s2,s2,0
 140:	0004                	0x4
 142:	0301                	addi	t1,t1,0
 144:	00040907          	0x40907
 148:	0301                	addi	t1,t1,0
 14a:	0901                	addi	s2,s2,0
 14c:	0004                	0x4
 14e:	0301                	addi	t1,t1,0
 150:	0904                	addi	s1,sp,144
 152:	0004                	0x4
 154:	0301                	addi	t1,t1,0
 156:	0901                	addi	s2,s2,0
 158:	0004                	0x4
 15a:	0301                	addi	t1,t1,0
 15c:	0904                	addi	s1,sp,144
 15e:	0004                	0x4
 160:	0301                	addi	t1,t1,0
 162:	0901                	addi	s2,s2,0
 164:	0004                	0x4
 166:	0301                	addi	t1,t1,0
 168:	0901                	addi	s2,s2,0
 16a:	0004                	0x4
 16c:	0301                	addi	t1,t1,0
 16e:	0901                	addi	s2,s2,0
 170:	0004                	0x4
 172:	0301                	addi	t1,t1,0
 174:	0901                	addi	s2,s2,0
 176:	0004                	0x4
 178:	0301                	addi	t1,t1,0
 17a:	0901                	addi	s2,s2,0
 17c:	0004                	0x4
 17e:	0301                	addi	t1,t1,0
 180:	0902                	c.slli64	s2
 182:	0004                	0x4
 184:	0301                	addi	t1,t1,0
 186:	0901                	addi	s2,s2,0
 188:	0004                	0x4
 18a:	0301                	addi	t1,t1,0
 18c:	0901                	addi	s2,s2,0
 18e:	0004                	0x4
 190:	0301                	addi	t1,t1,0
 192:	0901                	addi	s2,s2,0
 194:	0004                	0x4
 196:	0301                	addi	t1,t1,0
 198:	0902                	c.slli64	s2
 19a:	0004                	0x4
 19c:	0301                	addi	t1,t1,0
 19e:	0902                	c.slli64	s2
 1a0:	0004                	0x4
 1a2:	0301                	addi	t1,t1,0
 1a4:	0901                	addi	s2,s2,0
 1a6:	0004                	0x4
 1a8:	0301                	addi	t1,t1,0
 1aa:	0901                	addi	s2,s2,0
 1ac:	0004                	0x4
 1ae:	0301                	addi	t1,t1,0
 1b0:	0902                	c.slli64	s2
 1b2:	0004                	0x4
 1b4:	0301                	addi	t1,t1,0
 1b6:	0901                	addi	s2,s2,0
 1b8:	0004                	0x4
 1ba:	0301                	addi	t1,t1,0
 1bc:	0901                	addi	s2,s2,0
 1be:	0004                	0x4
 1c0:	0301                	addi	t1,t1,0
 1c2:	0902                	c.slli64	s2
 1c4:	0004                	0x4
 1c6:	0301                	addi	t1,t1,0
 1c8:	0905                	addi	s2,s2,1
 1ca:	0004                	0x4
 1cc:	0301                	addi	t1,t1,0
 1ce:	0901                	addi	s2,s2,0
 1d0:	0004                	0x4
 1d2:	0301                	addi	t1,t1,0
 1d4:	0901                	addi	s2,s2,0
 1d6:	0004                	0x4
 1d8:	0301                	addi	t1,t1,0
 1da:	0901                	addi	s2,s2,0
 1dc:	0004                	0x4
 1de:	0301                	addi	t1,t1,0
 1e0:	0905                	addi	s2,s2,1
 1e2:	0004                	0x4
 1e4:	0301                	addi	t1,t1,0
 1e6:	0901                	addi	s2,s2,0
 1e8:	0004                	0x4
 1ea:	0301                	addi	t1,t1,0
 1ec:	0901                	addi	s2,s2,0
 1ee:	0004                	0x4
 1f0:	0301                	addi	t1,t1,0
 1f2:	0901                	addi	s2,s2,0
 1f4:	0004                	0x4
 1f6:	0301                	addi	t1,t1,0
 1f8:	0902                	c.slli64	s2
 1fa:	0004                	0x4
 1fc:	0301                	addi	t1,t1,0
 1fe:	0902                	c.slli64	s2
 200:	0004                	0x4
 202:	0301                	addi	t1,t1,0
 204:	0901                	addi	s2,s2,0
 206:	0004                	0x4
 208:	0301                	addi	t1,t1,0
 20a:	0901                	addi	s2,s2,0
 20c:	0004                	0x4
 20e:	0301                	addi	t1,t1,0
 210:	0901                	addi	s2,s2,0
 212:	0004                	0x4
 214:	0301                	addi	t1,t1,0
 216:	0904                	addi	s1,sp,144
 218:	0004                	0x4
 21a:	0301                	addi	t1,t1,0
 21c:	0901                	addi	s2,s2,0
 21e:	0004                	0x4
 220:	0301                	addi	t1,t1,0
 222:	0901                	addi	s2,s2,0
 224:	0004                	0x4
 226:	0301                	addi	t1,t1,0
 228:	0902                	c.slli64	s2
 22a:	0004                	0x4
 22c:	0301                	addi	t1,t1,0
 22e:	0901                	addi	s2,s2,0
 230:	0004                	0x4
 232:	0301                	addi	t1,t1,0
 234:	0901                	addi	s2,s2,0
 236:	0004                	0x4
 238:	0301                	addi	t1,t1,0
 23a:	0902                	c.slli64	s2
 23c:	0004                	0x4
 23e:	0301                	addi	t1,t1,0
 240:	0901                	addi	s2,s2,0
 242:	0004                	0x4
 244:	0301                	addi	t1,t1,0
 246:	0902                	c.slli64	s2
 248:	0004                	0x4
 24a:	0301                	addi	t1,t1,0
 24c:	0901                	addi	s2,s2,0
 24e:	0004                	0x4
 250:	0301                	addi	t1,t1,0
 252:	0901                	addi	s2,s2,0
 254:	0004                	0x4
 256:	0301                	addi	t1,t1,0
 258:	0901                	addi	s2,s2,0
 25a:	0004                	0x4
 25c:	0301                	addi	t1,t1,0
 25e:	0906                	slli	s2,s2,0x1
 260:	0004                	0x4
 262:	0301                	addi	t1,t1,0
 264:	0901                	addi	s2,s2,0
 266:	0004                	0x4
 268:	0301                	addi	t1,t1,0
 26a:	0901                	addi	s2,s2,0
 26c:	0004                	0x4
 26e:	0901                	addi	s2,s2,0
 270:	0004                	0x4
 272:	0100                	addi	s0,sp,128
 274:	01              	Address 0x0000000000000274 is out of bounds.


Disassembly of section .debug_info:

0000000000000000 <.debug_info>:
   0:	002a                	c.slli	zero,0xa
   2:	0000                	unimp
   4:	0002                	c.slli64	zero
   6:	0000                	unimp
   8:	0000                	unimp
   a:	0108                	addi	a0,sp,128
   c:	0000                	unimp
   e:	0000                	unimp
  10:	2e90                	fld	fa2,24(a3)
  12:	8000                	0x8000
  14:	0000                	unimp
  16:	0000                	unimp
  18:	2eb4                	fld	fa3,88(a3)
  1a:	8000                	0x8000
	...
  24:	00000033          	add	zero,zero,zero
  28:	0091                	addi	ra,ra,4
  2a:	0000                	unimp
  2c:	8001                	c.srli64	s0
  2e:	002a                	c.slli	zero,0xa
  30:	0000                	unimp
  32:	0002                	c.slli64	zero
  34:	0014                	0x14
  36:	0000                	unimp
  38:	0108                	addi	a0,sp,128
  3a:	00000097          	auipc	ra,0x0
  3e:	2eb4                	fld	fa3,88(a3)
  40:	8000                	0x8000
  42:	0000                	unimp
  44:	0000                	unimp
  46:	2fb4                	fld	fa3,88(a5)
  48:	8000                	0x8000
  4a:	0000                	unimp
  4c:	0000                	unimp
  4e:	009d                	addi	ra,ra,7
  50:	0000                	unimp
  52:	00000033          	add	zero,zero,zero
  56:	0091                	addi	ra,ra,4
  58:	0000                	unimp
  5a:	8001                	c.srli64	s0

Disassembly of section .debug_abbrev:

0000000000000000 <.debug_abbrev>:
   0:	1101                	addi	sp,sp,-32
   2:	1000                	addi	s0,sp,32
   4:	1106                	slli	sp,sp,0x21
   6:	1201                	addi	tp,tp,-32
   8:	0301                	addi	t1,t1,0
   a:	1b0e                	slli	s6,s6,0x23
   c:	250e                	fld	fa0,192(sp)
   e:	130e                	slli	t1,t1,0x23
  10:	0005                	c.nop	1
  12:	0000                	unimp
  14:	1101                	addi	sp,sp,-32
  16:	1000                	addi	s0,sp,32
  18:	1106                	slli	sp,sp,0x21
  1a:	1201                	addi	tp,tp,-32
  1c:	0301                	addi	t1,t1,0
  1e:	1b0e                	slli	s6,s6,0x23
  20:	250e                	fld	fa0,192(sp)
  22:	130e                	slli	t1,t1,0x23
  24:	0005                	c.nop	1
	...

Disassembly of section .debug_aranges:

0000000000000000 <.debug_aranges>:
   0:	002c                	addi	a1,sp,8
   2:	0000                	unimp
   4:	0002                	c.slli64	zero
   6:	0000                	unimp
   8:	0000                	unimp
   a:	0008                	0x8
   c:	0000                	unimp
   e:	0000                	unimp
  10:	2e90                	fld	fa2,24(a3)
  12:	8000                	0x8000
  14:	0000                	unimp
  16:	0000                	unimp
  18:	0024                	addi	s1,sp,8
	...
  2e:	0000                	unimp
  30:	002c                	addi	a1,sp,8
  32:	0000                	unimp
  34:	0002                	c.slli64	zero
  36:	002e                	c.slli	zero,0xb
  38:	0000                	unimp
  3a:	0008                	0x8
  3c:	0000                	unimp
  3e:	0000                	unimp
  40:	2eb4                	fld	fa3,88(a3)
  42:	8000                	0x8000
  44:	0000                	unimp
  46:	0000                	unimp
  48:	0100                	addi	s0,sp,128
	...

Disassembly of section .debug_str:

0000000000000000 <.debug_str>:
   0:	2e2e                	fld	ft8,200(sp)
   2:	2f2e2e2f          	0x2f2e2e2f
   6:	2e2e                	fld	ft8,200(sp)
   8:	2f2e2e2f          	0x2f2e2e2f
   c:	6972                	ld	s2,280(sp)
   e:	2d766373          	csrrsi	t1,0x2d7,12
  12:	2f636367          	0x2f636367
  16:	696c                	ld	a1,208(a0)
  18:	6762                	ld	a4,24(sp)
  1a:	632f6363          	bltu	t5,s2,640 <buflen.2991+0x600>
  1e:	69666e6f          	jal	t3,666b4 <buflen.2991+0x66674>
  22:	69722f67          	0x69722f67
  26:	2f766373          	csrrsi	t1,0x2f7,12
  2a:	756d                	lui	a0,0xffffb
  2c:	646c                	ld	a1,200(s0)
  2e:	3369                	addiw	t1,t1,-6
  30:	532e                	lw	t1,232(sp)
  32:	2f00                	fld	fs0,24(a4)
  34:	6f68                	ld	a0,216(a4)
  36:	656d                	lui	a0,0x1b
  38:	796d6a2f          	0x796d6a2f
  3c:	2f65                	addiw	t5,t5,25
  3e:	6f74                	ld	a3,216(a4)
  40:	2f736c6f          	jal	s8,36b36 <buflen.2991+0x36af6>
  44:	6972                	ld	s2,280(sp)
  46:	2d766373          	csrrsi	t1,0x2d7,12
  4a:	2d756e67          	0x2d756e67
  4e:	6f74                	ld	a3,216(a4)
  50:	68636c6f          	jal	s8,366d6 <buflen.2991+0x36696>
  54:	6961                	lui	s2,0x18
  56:	2f6e                	fld	ft10,216(sp)
  58:	7562                	ld	a0,56(sp)
  5a:	6c69                	lui	s8,0x1a
  5c:	2f64                	fld	fs1,216(a4)
  5e:	7562                	ld	a0,56(sp)
  60:	6c69                	lui	s8,0x1a
  62:	2d64                	fld	fs1,216(a0)
  64:	2d636367          	0x2d636367
  68:	656e                	ld	a0,216(sp)
  6a:	62696c77          	0x62696c77
  6e:	732d                	lui	t1,0xfffeb
  70:	6174                	ld	a3,192(a0)
  72:	2f326567          	0x2f326567
  76:	6972                	ld	s2,280(sp)
  78:	36766373          	csrrsi	t1,0x367,12
  7c:	2d34                	fld	fa3,88(a0)
  7e:	6e75                	lui	t3,0x1d
  80:	776f6e6b          	0x776f6e6b
  84:	2d6e                	fld	fs10,216(sp)
  86:	6c65                	lui	s8,0x19
  88:	2f66                	fld	ft10,88(sp)
  8a:	696c                	ld	a1,208(a0)
  8c:	6762                	ld	a4,24(sp)
  8e:	47006363          	bltu	zero,a6,4f4 <buflen.2991+0x4b4>
  92:	554e                	lw	a0,240(sp)
  94:	4120                	lw	s0,64(a0)
  96:	2e322053          	0x2e322053
  9a:	2e003233          	0x2e003233
  9e:	2f2e                	fld	ft10,200(sp)
  a0:	2e2e                	fld	ft8,200(sp)
  a2:	2f2e2e2f          	0x2f2e2e2f
  a6:	2e2e                	fld	ft8,200(sp)
  a8:	7369722f          	0x7369722f
  ac:	672d7663          	bgeu	s10,s2,718 <buflen.2991+0x6d8>
  b0:	6c2f6363          	bltu	t5,sp,776 <buflen.2991+0x736>
  b4:	6269                	lui	tp,0x1a
  b6:	2f636367          	0x2f636367
  ba:	666e6f63          	bltu	t3,t1,738 <buflen.2991+0x6f8>
  be:	6769                	lui	a4,0x1a
  c0:	7369722f          	0x7369722f
  c4:	642f7663          	bgeu	t5,sp,710 <buflen.2991+0x6d0>
  c8:	7669                	lui	a2,0xffffa
  ca:	532e                	lw	t1,232(sp)
	...
