
./dhrystone.elf:     file format elf64-littleriscv


Disassembly of section .text.init:

0000000080000000 <_start>:
    80000000:	00000093          	li	ra,0
    80000004:	00000113          	li	sp,0
    80000008:	00000193          	li	gp,0
    8000000c:	00000213          	li	tp,0
    80000010:	00000293          	li	t0,0
    80000014:	00000313          	li	t1,0
    80000018:	00000393          	li	t2,0
    8000001c:	00000413          	li	s0,0
    80000020:	00000493          	li	s1,0
    80000024:	00000513          	li	a0,0
    80000028:	00000593          	li	a1,0
    8000002c:	00000613          	li	a2,0
    80000030:	00000693          	li	a3,0
    80000034:	00000713          	li	a4,0
    80000038:	00000793          	li	a5,0
    8000003c:	00000813          	li	a6,0
    80000040:	00000893          	li	a7,0
    80000044:	00000913          	li	s2,0
    80000048:	00000993          	li	s3,0
    8000004c:	00000a13          	li	s4,0
    80000050:	00000a93          	li	s5,0
    80000054:	00000b13          	li	s6,0
    80000058:	00000b93          	li	s7,0
    8000005c:	00000c13          	li	s8,0
    80000060:	00000c93          	li	s9,0
    80000064:	00000d13          	li	s10,0
    80000068:	00000d93          	li	s11,0
    8000006c:	00000e13          	li	t3,0
    80000070:	00000e93          	li	t4,0
    80000074:	00000f13          	li	t5,0
    80000078:	00000f93          	li	t6,0
    8000007c:	0001e2b7          	lui	t0,0x1e
    80000080:	6002829b          	addiw	t0,t0,1536
    80000084:	3002a073          	csrs	mstatus,t0
    80000088:	00100293          	li	t0,1
    8000008c:	01f29293          	slli	t0,t0,0x1f
    80000090:	0002da63          	bgez	t0,800000a4 <_start+0xa4>
    80000094:	00100513          	li	a0,1
    80000098:	00001297          	auipc	t0,0x1
    8000009c:	f6a2a423          	sw	a0,-152(t0) # 80001000 <tohost>
    800000a0:	ff5ff06f          	j	80000094 <_start+0x94>
    800000a4:	00000297          	auipc	t0,0x0
    800000a8:	04428293          	addi	t0,t0,68 # 800000e8 <trap_entry>
    800000ac:	30529073          	csrw	mtvec,t0
    800000b0:	00004197          	auipc	gp,0x4
    800000b4:	6f018193          	addi	gp,gp,1776 # 800047a0 <__global_pointer$>
    800000b8:	00006217          	auipc	tp,0x6
    800000bc:	78720213          	addi	tp,tp,1927 # 8000683f <_end+0x3f>
    800000c0:	fc027213          	andi	tp,tp,-64
    800000c4:	f1402573          	csrr	a0,mhartid
    800000c8:	00100593          	li	a1,1
    800000cc:	00b57063          	bgeu	a0,a1,800000cc <_start+0xcc>
    800000d0:	00150113          	addi	sp,a0,1
    800000d4:	01111113          	slli	sp,sp,0x11
    800000d8:	00410133          	add	sp,sp,tp
    800000dc:	01151613          	slli	a2,a0,0x11
    800000e0:	00c20233          	add	tp,tp,a2
    800000e4:	3750206f          	j	80002c58 <_init>

00000000800000e8 <trap_entry>:
    800000e8:	ef010113          	addi	sp,sp,-272
    800000ec:	00113423          	sd	ra,8(sp)
    800000f0:	00213823          	sd	sp,16(sp)
    800000f4:	00313c23          	sd	gp,24(sp)
    800000f8:	02413023          	sd	tp,32(sp)
    800000fc:	02513423          	sd	t0,40(sp)
    80000100:	02613823          	sd	t1,48(sp)
    80000104:	02713c23          	sd	t2,56(sp)
    80000108:	04813023          	sd	s0,64(sp)
    8000010c:	04913423          	sd	s1,72(sp)
    80000110:	04a13823          	sd	a0,80(sp)
    80000114:	04b13c23          	sd	a1,88(sp)
    80000118:	06c13023          	sd	a2,96(sp)
    8000011c:	06d13423          	sd	a3,104(sp)
    80000120:	06e13823          	sd	a4,112(sp)
    80000124:	06f13c23          	sd	a5,120(sp)
    80000128:	09013023          	sd	a6,128(sp)
    8000012c:	09113423          	sd	a7,136(sp)
    80000130:	09213823          	sd	s2,144(sp)
    80000134:	09313c23          	sd	s3,152(sp)
    80000138:	0b413023          	sd	s4,160(sp)
    8000013c:	0b513423          	sd	s5,168(sp)
    80000140:	0b613823          	sd	s6,176(sp)
    80000144:	0b713c23          	sd	s7,184(sp)
    80000148:	0d813023          	sd	s8,192(sp)
    8000014c:	0d913423          	sd	s9,200(sp)
    80000150:	0da13823          	sd	s10,208(sp)
    80000154:	0db13c23          	sd	s11,216(sp)
    80000158:	0fc13023          	sd	t3,224(sp)
    8000015c:	0fd13423          	sd	t4,232(sp)
    80000160:	0fe13823          	sd	t5,240(sp)
    80000164:	0ff13c23          	sd	t6,248(sp)
    80000168:	34202573          	csrr	a0,mcause
    8000016c:	341025f3          	csrr	a1,mepc
    80000170:	00010613          	mv	a2,sp
    80000174:	7d8020ef          	jal	ra,8000294c <handle_trap>
    80000178:	34151073          	csrw	mepc,a0
    8000017c:	000022b7          	lui	t0,0x2
    80000180:	8002829b          	addiw	t0,t0,-2048
    80000184:	3002a073          	csrs	mstatus,t0
    80000188:	00813083          	ld	ra,8(sp)
    8000018c:	01013103          	ld	sp,16(sp)
    80000190:	01813183          	ld	gp,24(sp)
    80000194:	02013203          	ld	tp,32(sp)
    80000198:	02813283          	ld	t0,40(sp)
    8000019c:	03013303          	ld	t1,48(sp)
    800001a0:	03813383          	ld	t2,56(sp)
    800001a4:	04013403          	ld	s0,64(sp)
    800001a8:	04813483          	ld	s1,72(sp)
    800001ac:	05013503          	ld	a0,80(sp)
    800001b0:	05813583          	ld	a1,88(sp)
    800001b4:	06013603          	ld	a2,96(sp)
    800001b8:	06813683          	ld	a3,104(sp)
    800001bc:	07013703          	ld	a4,112(sp)
    800001c0:	07813783          	ld	a5,120(sp)
    800001c4:	08013803          	ld	a6,128(sp)
    800001c8:	08813883          	ld	a7,136(sp)
    800001cc:	09013903          	ld	s2,144(sp)
    800001d0:	09813983          	ld	s3,152(sp)
    800001d4:	0a013a03          	ld	s4,160(sp)
    800001d8:	0a813a83          	ld	s5,168(sp)
    800001dc:	0b013b03          	ld	s6,176(sp)
    800001e0:	0b813b83          	ld	s7,184(sp)
    800001e4:	0c013c03          	ld	s8,192(sp)
    800001e8:	0c813c83          	ld	s9,200(sp)
    800001ec:	0d013d03          	ld	s10,208(sp)
    800001f0:	0d813d83          	ld	s11,216(sp)
    800001f4:	0e013e03          	ld	t3,224(sp)
    800001f8:	0e813e83          	ld	t4,232(sp)
    800001fc:	0f013f03          	ld	t5,240(sp)
    80000200:	0f813f83          	ld	t6,248(sp)
    80000204:	11010113          	addi	sp,sp,272
    80000208:	30200073          	mret

Disassembly of section .tohost:

0000000080001000 <tohost>:
	...

0000000080001040 <fromhost>:
	...

Disassembly of section .text:

0000000080002000 <Proc_7>:
    80002000:	0025051b          	addiw	a0,a0,2
    80002004:	00b505bb          	addw	a1,a0,a1
    80002008:	00b62023          	sw	a1,0(a2)
    8000200c:	00008067          	ret

0000000080002010 <Proc_8>:
    80002010:	0056071b          	addiw	a4,a2,5
    80002014:	00171793          	slli	a5,a4,0x1
    80002018:	00e787b3          	add	a5,a5,a4
    8000201c:	00379793          	slli	a5,a5,0x3
    80002020:	00e787b3          	add	a5,a5,a4
    80002024:	00070813          	mv	a6,a4
    80002028:	00261613          	slli	a2,a2,0x2
    8000202c:	00379793          	slli	a5,a5,0x3
    80002030:	00271713          	slli	a4,a4,0x2
    80002034:	00e50533          	add	a0,a0,a4
    80002038:	00c78733          	add	a4,a5,a2
    8000203c:	00d52023          	sw	a3,0(a0)
    80002040:	00d52223          	sw	a3,4(a0)
    80002044:	07052c23          	sw	a6,120(a0)
    80002048:	00e58733          	add	a4,a1,a4
    8000204c:	01072683          	lw	a3,16(a4)
    80002050:	01072a23          	sw	a6,20(a4)
    80002054:	01072c23          	sw	a6,24(a4)
    80002058:	0016869b          	addiw	a3,a3,1
    8000205c:	00d72823          	sw	a3,16(a4)
    80002060:	00052703          	lw	a4,0(a0)
    80002064:	00f587b3          	add	a5,a1,a5
    80002068:	00c787b3          	add	a5,a5,a2
    8000206c:	000015b7          	lui	a1,0x1
    80002070:	00f587b3          	add	a5,a1,a5
    80002074:	fae7aa23          	sw	a4,-76(a5)
    80002078:	00500793          	li	a5,5
    8000207c:	00002717          	auipc	a4,0x2
    80002080:	f4f72e23          	sw	a5,-164(a4) # 80003fd8 <Int_Glob>
    80002084:	00008067          	ret

0000000080002088 <Func_1>:
    80002088:	0ff57513          	andi	a0,a0,255
    8000208c:	0ff5f593          	andi	a1,a1,255
    80002090:	00b50663          	beq	a0,a1,8000209c <Func_1+0x14>
    80002094:	00000513          	li	a0,0
    80002098:	00008067          	ret
    8000209c:	00002797          	auipc	a5,0x2
    800020a0:	f2a78aa3          	sb	a0,-203(a5) # 80003fd1 <Ch_1_Glob>
    800020a4:	00100513          	li	a0,1
    800020a8:	00008067          	ret

00000000800020ac <Func_2>:
    800020ac:	fe010113          	addi	sp,sp,-32
    800020b0:	00813823          	sd	s0,16(sp)
    800020b4:	00913423          	sd	s1,8(sp)
    800020b8:	00113c23          	sd	ra,24(sp)
    800020bc:	00050413          	mv	s0,a0
    800020c0:	00058493          	mv	s1,a1
    800020c4:	0034c583          	lbu	a1,3(s1)
    800020c8:	00244503          	lbu	a0,2(s0)
    800020cc:	fbdff0ef          	jal	ra,80002088 <Func_1>
    800020d0:	0005051b          	sext.w	a0,a0
    800020d4:	fe0518e3          	bnez	a0,800020c4 <Func_2+0x18>
    800020d8:	00048593          	mv	a1,s1
    800020dc:	00040513          	mv	a0,s0
    800020e0:	4d1000ef          	jal	ra,80002db0 <strcmp>
    800020e4:	00000793          	li	a5,0
    800020e8:	00a05a63          	blez	a0,800020fc <Func_2+0x50>
    800020ec:	00a00793          	li	a5,10
    800020f0:	00002717          	auipc	a4,0x2
    800020f4:	eef72423          	sw	a5,-280(a4) # 80003fd8 <Int_Glob>
    800020f8:	00100793          	li	a5,1
    800020fc:	01813083          	ld	ra,24(sp)
    80002100:	01013403          	ld	s0,16(sp)
    80002104:	00813483          	ld	s1,8(sp)
    80002108:	00078513          	mv	a0,a5
    8000210c:	02010113          	addi	sp,sp,32
    80002110:	00008067          	ret

0000000080002114 <Func_3>:
    80002114:	ffe50513          	addi	a0,a0,-2
    80002118:	00153513          	seqz	a0,a0
    8000211c:	00008067          	ret

0000000080002120 <Proc_6>:
    80002120:	fe010113          	addi	sp,sp,-32
    80002124:	00813823          	sd	s0,16(sp)
    80002128:	00913423          	sd	s1,8(sp)
    8000212c:	00050413          	mv	s0,a0
    80002130:	00113c23          	sd	ra,24(sp)
    80002134:	00058493          	mv	s1,a1
    80002138:	fddff0ef          	jal	ra,80002114 <Func_3>
    8000213c:	00040793          	mv	a5,s0
    80002140:	00051463          	bnez	a0,80002148 <Proc_6+0x28>
    80002144:	00300793          	li	a5,3
    80002148:	00f4a023          	sw	a5,0(s1)
    8000214c:	00200793          	li	a5,2
    80002150:	04f40a63          	beq	s0,a5,800021a4 <Proc_6+0x84>
    80002154:	0287e863          	bltu	a5,s0,80002184 <Proc_6+0x64>
    80002158:	00040a63          	beqz	s0,8000216c <Proc_6+0x4c>
    8000215c:	00002717          	auipc	a4,0x2
    80002160:	e7c72703          	lw	a4,-388(a4) # 80003fd8 <Int_Glob>
    80002164:	06400793          	li	a5,100
    80002168:	04e7dc63          	bge	a5,a4,800021c0 <Proc_6+0xa0>
    8000216c:	0004a023          	sw	zero,0(s1)
    80002170:	01813083          	ld	ra,24(sp)
    80002174:	01013403          	ld	s0,16(sp)
    80002178:	00813483          	ld	s1,8(sp)
    8000217c:	02010113          	addi	sp,sp,32
    80002180:	00008067          	ret
    80002184:	00400713          	li	a4,4
    80002188:	fee414e3          	bne	s0,a4,80002170 <Proc_6+0x50>
    8000218c:	01813083          	ld	ra,24(sp)
    80002190:	01013403          	ld	s0,16(sp)
    80002194:	00f4a023          	sw	a5,0(s1)
    80002198:	00813483          	ld	s1,8(sp)
    8000219c:	02010113          	addi	sp,sp,32
    800021a0:	00008067          	ret
    800021a4:	01813083          	ld	ra,24(sp)
    800021a8:	01013403          	ld	s0,16(sp)
    800021ac:	00100793          	li	a5,1
    800021b0:	00f4a023          	sw	a5,0(s1)
    800021b4:	00813483          	ld	s1,8(sp)
    800021b8:	02010113          	addi	sp,sp,32
    800021bc:	00008067          	ret
    800021c0:	01813083          	ld	ra,24(sp)
    800021c4:	01013403          	ld	s0,16(sp)
    800021c8:	00300793          	li	a5,3
    800021cc:	00f4a023          	sw	a5,0(s1)
    800021d0:	00813483          	ld	s1,8(sp)
    800021d4:	02010113          	addi	sp,sp,32
    800021d8:	00008067          	ret

00000000800021dc <debug_printf>:
    800021dc:	fc010113          	addi	sp,sp,-64
    800021e0:	00b13423          	sd	a1,8(sp)
    800021e4:	00c13823          	sd	a2,16(sp)
    800021e8:	00d13c23          	sd	a3,24(sp)
    800021ec:	02e13023          	sd	a4,32(sp)
    800021f0:	02f13423          	sd	a5,40(sp)
    800021f4:	03013823          	sd	a6,48(sp)
    800021f8:	03113c23          	sd	a7,56(sp)
    800021fc:	04010113          	addi	sp,sp,64
    80002200:	00008067          	ret

0000000080002204 <Proc_2>:
    80002204:	00002717          	auipc	a4,0x2
    80002208:	dcd74703          	lbu	a4,-563(a4) # 80003fd1 <Ch_1_Glob>
    8000220c:	04100793          	li	a5,65
    80002210:	00f70463          	beq	a4,a5,80002218 <Proc_2+0x14>
    80002214:	00008067          	ret
    80002218:	00052783          	lw	a5,0(a0)
    8000221c:	00002717          	auipc	a4,0x2
    80002220:	dbc72703          	lw	a4,-580(a4) # 80003fd8 <Int_Glob>
    80002224:	0097879b          	addiw	a5,a5,9
    80002228:	40e787bb          	subw	a5,a5,a4
    8000222c:	00f52023          	sw	a5,0(a0)
    80002230:	00008067          	ret

0000000080002234 <Proc_3>:
    80002234:	84818793          	addi	a5,gp,-1976 # 80003fe8 <Ptr_Glob>
    80002238:	0007b603          	ld	a2,0(a5)
    8000223c:	00060863          	beqz	a2,8000224c <Proc_3+0x18>
    80002240:	00063703          	ld	a4,0(a2)
    80002244:	00e53023          	sd	a4,0(a0)
    80002248:	0007b603          	ld	a2,0(a5)
    8000224c:	01060613          	addi	a2,a2,16
    80002250:	00002597          	auipc	a1,0x2
    80002254:	d885a583          	lw	a1,-632(a1) # 80003fd8 <Int_Glob>
    80002258:	00a00513          	li	a0,10
    8000225c:	da5ff06f          	j	80002000 <Proc_7>

0000000080002260 <Proc_1>:
    80002260:	fe010113          	addi	sp,sp,-32
    80002264:	01213023          	sd	s2,0(sp)
    80002268:	84818913          	addi	s2,gp,-1976 # 80003fe8 <Ptr_Glob>
    8000226c:	00093783          	ld	a5,0(s2)
    80002270:	00813823          	sd	s0,16(sp)
    80002274:	00053403          	ld	s0,0(a0)
    80002278:	0007b703          	ld	a4,0(a5)
    8000227c:	0107b803          	ld	a6,16(a5)
    80002280:	0187b583          	ld	a1,24(a5)
    80002284:	0207b603          	ld	a2,32(a5)
    80002288:	0287b683          	ld	a3,40(a5)
    8000228c:	00913423          	sd	s1,8(sp)
    80002290:	00113c23          	sd	ra,24(sp)
    80002294:	00050493          	mv	s1,a0
    80002298:	0087b503          	ld	a0,8(a5)
    8000229c:	0307b783          	ld	a5,48(a5)
    800022a0:	00e43023          	sd	a4,0(s0)
    800022a4:	0004b703          	ld	a4,0(s1)
    800022a8:	01043823          	sd	a6,16(s0)
    800022ac:	00a43423          	sd	a0,8(s0)
    800022b0:	02f43823          	sd	a5,48(s0)
    800022b4:	00b43c23          	sd	a1,24(s0)
    800022b8:	00500793          	li	a5,5
    800022bc:	02c43023          	sd	a2,32(s0)
    800022c0:	02d43423          	sd	a3,40(s0)
    800022c4:	00f4a823          	sw	a5,16(s1)
    800022c8:	00f42823          	sw	a5,16(s0)
    800022cc:	00e43023          	sd	a4,0(s0)
    800022d0:	00040513          	mv	a0,s0
    800022d4:	f61ff0ef          	jal	ra,80002234 <Proc_3>
    800022d8:	00842783          	lw	a5,8(s0)
    800022dc:	04078c63          	beqz	a5,80002334 <Proc_1+0xd4>
    800022e0:	0004b783          	ld	a5,0(s1)
    800022e4:	01813083          	ld	ra,24(sp)
    800022e8:	01013403          	ld	s0,16(sp)
    800022ec:	0007b883          	ld	a7,0(a5)
    800022f0:	0087b803          	ld	a6,8(a5)
    800022f4:	0107b583          	ld	a1,16(a5)
    800022f8:	0187b603          	ld	a2,24(a5)
    800022fc:	0207b683          	ld	a3,32(a5)
    80002300:	0287b703          	ld	a4,40(a5)
    80002304:	0307b783          	ld	a5,48(a5)
    80002308:	0114b023          	sd	a7,0(s1)
    8000230c:	0104b423          	sd	a6,8(s1)
    80002310:	00b4b823          	sd	a1,16(s1)
    80002314:	00c4bc23          	sd	a2,24(s1)
    80002318:	02d4b023          	sd	a3,32(s1)
    8000231c:	02e4b423          	sd	a4,40(s1)
    80002320:	02f4b823          	sd	a5,48(s1)
    80002324:	00013903          	ld	s2,0(sp)
    80002328:	00813483          	ld	s1,8(sp)
    8000232c:	02010113          	addi	sp,sp,32
    80002330:	00008067          	ret
    80002334:	00c4a503          	lw	a0,12(s1)
    80002338:	00600793          	li	a5,6
    8000233c:	00c40593          	addi	a1,s0,12
    80002340:	00f42823          	sw	a5,16(s0)
    80002344:	dddff0ef          	jal	ra,80002120 <Proc_6>
    80002348:	00093783          	ld	a5,0(s2)
    8000234c:	01042503          	lw	a0,16(s0)
    80002350:	01040613          	addi	a2,s0,16
    80002354:	0007b783          	ld	a5,0(a5)
    80002358:	01813083          	ld	ra,24(sp)
    8000235c:	00813483          	ld	s1,8(sp)
    80002360:	00f43023          	sd	a5,0(s0)
    80002364:	01013403          	ld	s0,16(sp)
    80002368:	00013903          	ld	s2,0(sp)
    8000236c:	00a00593          	li	a1,10
    80002370:	02010113          	addi	sp,sp,32
    80002374:	c8dff06f          	j	80002000 <Proc_7>

0000000080002378 <Proc_4>:
    80002378:	00002717          	auipc	a4,0x2
    8000237c:	c5c70713          	addi	a4,a4,-932 # 80003fd4 <Bool_Glob>
    80002380:	00072683          	lw	a3,0(a4)
    80002384:	00002797          	auipc	a5,0x2
    80002388:	c4d7c783          	lbu	a5,-947(a5) # 80003fd1 <Ch_1_Glob>
    8000238c:	fbf78793          	addi	a5,a5,-65
    80002390:	0017b793          	seqz	a5,a5
    80002394:	00d7e7b3          	or	a5,a5,a3
    80002398:	00f72023          	sw	a5,0(a4)
    8000239c:	04200793          	li	a5,66
    800023a0:	00002717          	auipc	a4,0x2
    800023a4:	c2f70823          	sb	a5,-976(a4) # 80003fd0 <Ch_2_Glob>
    800023a8:	00008067          	ret

00000000800023ac <Proc_5>:
    800023ac:	04100793          	li	a5,65
    800023b0:	00002717          	auipc	a4,0x2
    800023b4:	c2f700a3          	sb	a5,-991(a4) # 80003fd1 <Ch_1_Glob>
    800023b8:	00002797          	auipc	a5,0x2
    800023bc:	c007ae23          	sw	zero,-996(a5) # 80003fd4 <Bool_Glob>
    800023c0:	00008067          	ret

00000000800023c4 <vprintfmt>:
    800023c4:	e8010113          	addi	sp,sp,-384
    800023c8:	16813823          	sd	s0,368(sp)
    800023cc:	17213023          	sd	s2,352(sp)
    800023d0:	15313c23          	sd	s3,344(sp)
    800023d4:	15513423          	sd	s5,328(sp)
    800023d8:	16113c23          	sd	ra,376(sp)
    800023dc:	16913423          	sd	s1,360(sp)
    800023e0:	15413823          	sd	s4,336(sp)
    800023e4:	15613023          	sd	s6,320(sp)
    800023e8:	13713c23          	sd	s7,312(sp)
    800023ec:	13813823          	sd	s8,304(sp)
    800023f0:	13913423          	sd	s9,296(sp)
    800023f4:	13a13023          	sd	s10,288(sp)
    800023f8:	11b13c23          	sd	s11,280(sp)
    800023fc:	00050993          	mv	s3,a0
    80002400:	00058913          	mv	s2,a1
    80002404:	00060413          	mv	s0,a2
    80002408:	00d13423          	sd	a3,8(sp)
    8000240c:	02500a93          	li	s5,37
    80002410:	0140006f          	j	80002424 <vprintfmt+0x60>
    80002414:	06050463          	beqz	a0,8000247c <vprintfmt+0xb8>
    80002418:	00090593          	mv	a1,s2
    8000241c:	00140413          	addi	s0,s0,1
    80002420:	000980e7          	jalr	s3
    80002424:	00044503          	lbu	a0,0(s0)
    80002428:	ff5516e3          	bne	a0,s5,80002414 <vprintfmt+0x50>
    8000242c:	00144683          	lbu	a3,1(s0)
    80002430:	00140a13          	addi	s4,s0,1
    80002434:	000a0713          	mv	a4,s4
    80002438:	02000c93          	li	s9,32
    8000243c:	fff00493          	li	s1,-1
    80002440:	fff00c13          	li	s8,-1
    80002444:	00000513          	li	a0,0
    80002448:	05500613          	li	a2,85
    8000244c:	00900593          	li	a1,9
    80002450:	fdd6879b          	addiw	a5,a3,-35
    80002454:	0ff7f793          	andi	a5,a5,255
    80002458:	00170413          	addi	s0,a4,1
    8000245c:	06f66c63          	bltu	a2,a5,800024d4 <vprintfmt+0x110>
    80002460:	00002817          	auipc	a6,0x2
    80002464:	9e880813          	addi	a6,a6,-1560 # 80003e48 <main+0xe94>
    80002468:	00279793          	slli	a5,a5,0x2
    8000246c:	010787b3          	add	a5,a5,a6
    80002470:	0007a783          	lw	a5,0(a5)
    80002474:	010787b3          	add	a5,a5,a6
    80002478:	00078067          	jr	a5
    8000247c:	17813083          	ld	ra,376(sp)
    80002480:	17013403          	ld	s0,368(sp)
    80002484:	16813483          	ld	s1,360(sp)
    80002488:	16013903          	ld	s2,352(sp)
    8000248c:	15813983          	ld	s3,344(sp)
    80002490:	15013a03          	ld	s4,336(sp)
    80002494:	14813a83          	ld	s5,328(sp)
    80002498:	14013b03          	ld	s6,320(sp)
    8000249c:	13813b83          	ld	s7,312(sp)
    800024a0:	13013c03          	ld	s8,304(sp)
    800024a4:	12813c83          	ld	s9,296(sp)
    800024a8:	12013d03          	ld	s10,288(sp)
    800024ac:	11813d83          	ld	s11,280(sp)
    800024b0:	18010113          	addi	sp,sp,384
    800024b4:	00008067          	ret
    800024b8:	00068c93          	mv	s9,a3
    800024bc:	00174683          	lbu	a3,1(a4)
    800024c0:	00040713          	mv	a4,s0
    800024c4:	00170413          	addi	s0,a4,1
    800024c8:	fdd6879b          	addiw	a5,a3,-35
    800024cc:	0ff7f793          	andi	a5,a5,255
    800024d0:	f8f678e3          	bgeu	a2,a5,80002460 <vprintfmt+0x9c>
    800024d4:	00090593          	mv	a1,s2
    800024d8:	02500513          	li	a0,37
    800024dc:	000980e7          	jalr	s3
    800024e0:	000a0413          	mv	s0,s4
    800024e4:	f41ff06f          	j	80002424 <vprintfmt+0x60>
    800024e8:	fd06849b          	addiw	s1,a3,-48
    800024ec:	00174683          	lbu	a3,1(a4)
    800024f0:	00040713          	mv	a4,s0
    800024f4:	fd06879b          	addiw	a5,a3,-48
    800024f8:	0006881b          	sext.w	a6,a3
    800024fc:	02f5e663          	bltu	a1,a5,80002528 <vprintfmt+0x164>
    80002500:	00174683          	lbu	a3,1(a4)
    80002504:	0024979b          	slliw	a5,s1,0x2
    80002508:	009784bb          	addw	s1,a5,s1
    8000250c:	0014949b          	slliw	s1,s1,0x1
    80002510:	010484bb          	addw	s1,s1,a6
    80002514:	fd06879b          	addiw	a5,a3,-48
    80002518:	00170713          	addi	a4,a4,1
    8000251c:	fd04849b          	addiw	s1,s1,-48
    80002520:	0006881b          	sext.w	a6,a3
    80002524:	fcf5fee3          	bgeu	a1,a5,80002500 <vprintfmt+0x13c>
    80002528:	f20c54e3          	bgez	s8,80002450 <vprintfmt+0x8c>
    8000252c:	00048c13          	mv	s8,s1
    80002530:	fff00493          	li	s1,-1
    80002534:	f1dff06f          	j	80002450 <vprintfmt+0x8c>
    80002538:	00174683          	lbu	a3,1(a4)
    8000253c:	00040713          	mv	a4,s0
    80002540:	f11ff06f          	j	80002450 <vprintfmt+0x8c>
    80002544:	00090593          	mv	a1,s2
    80002548:	02500513          	li	a0,37
    8000254c:	000980e7          	jalr	s3
    80002550:	ed5ff06f          	j	80002424 <vprintfmt+0x60>
    80002554:	00813783          	ld	a5,8(sp)
    80002558:	00174683          	lbu	a3,1(a4)
    8000255c:	00040713          	mv	a4,s0
    80002560:	0007a483          	lw	s1,0(a5)
    80002564:	00878793          	addi	a5,a5,8
    80002568:	00f13423          	sd	a5,8(sp)
    8000256c:	fbdff06f          	j	80002528 <vprintfmt+0x164>
    80002570:	03000513          	li	a0,48
    80002574:	00090593          	mv	a1,s2
    80002578:	000980e7          	jalr	s3
    8000257c:	00090593          	mv	a1,s2
    80002580:	07800513          	li	a0,120
    80002584:	000980e7          	jalr	s3
    80002588:	00813783          	ld	a5,8(sp)
    8000258c:	01000b93          	li	s7,16
    80002590:	00878793          	addi	a5,a5,8
    80002594:	00813703          	ld	a4,8(sp)
    80002598:	00f13423          	sd	a5,8(sp)
    8000259c:	00073a03          	ld	s4,0(a4)
    800025a0:	000b8593          	mv	a1,s7
    800025a4:	000a0513          	mv	a0,s4
    800025a8:	19d000ef          	jal	ra,80002f44 <__umoddi3>
    800025ac:	0005049b          	sext.w	s1,a0
    800025b0:	00912823          	sw	s1,16(sp)
    800025b4:	000c8c9b          	sext.w	s9,s9
    800025b8:	01410b13          	addi	s6,sp,20
    800025bc:	00100d93          	li	s11,1
    800025c0:	1f7a6e63          	bltu	s4,s7,800027bc <vprintfmt+0x3f8>
    800025c4:	000b8593          	mv	a1,s7
    800025c8:	000a0513          	mv	a0,s4
    800025cc:	131000ef          	jal	ra,80002efc <__udivdi3>
    800025d0:	000b8593          	mv	a1,s7
    800025d4:	00050a13          	mv	s4,a0
    800025d8:	16d000ef          	jal	ra,80002f44 <__umoddi3>
    800025dc:	0005049b          	sext.w	s1,a0
    800025e0:	009b2023          	sw	s1,0(s6)
    800025e4:	000d8d13          	mv	s10,s11
    800025e8:	004b0b13          	addi	s6,s6,4
    800025ec:	001d8d9b          	addiw	s11,s11,1
    800025f0:	fd7a7ae3          	bgeu	s4,s7,800025c4 <vprintfmt+0x200>
    800025f4:	018dde63          	bge	s11,s8,80002610 <vprintfmt+0x24c>
    800025f8:	000c0c1b          	sext.w	s8,s8
    800025fc:	fffc0c1b          	addiw	s8,s8,-1
    80002600:	00090593          	mv	a1,s2
    80002604:	000c8513          	mv	a0,s9
    80002608:	000980e7          	jalr	s3
    8000260c:	ff8dc8e3          	blt	s11,s8,800025fc <vprintfmt+0x238>
    80002610:	01010793          	addi	a5,sp,16
    80002614:	002d1a13          	slli	s4,s10,0x2
    80002618:	01478a33          	add	s4,a5,s4
    8000261c:	00078c93          	mv	s9,a5
    80002620:	00900c13          	li	s8,9
    80002624:	00c0006f          	j	80002630 <vprintfmt+0x26c>
    80002628:	ffca2483          	lw	s1,-4(s4)
    8000262c:	ffca0a13          	addi	s4,s4,-4
    80002630:	05700513          	li	a0,87
    80002634:	009c6463          	bltu	s8,s1,8000263c <vprintfmt+0x278>
    80002638:	03000513          	li	a0,48
    8000263c:	00090593          	mv	a1,s2
    80002640:	0095053b          	addw	a0,a0,s1
    80002644:	000980e7          	jalr	s3
    80002648:	ff9a10e3          	bne	s4,s9,80002628 <vprintfmt+0x264>
    8000264c:	dd9ff06f          	j	80002424 <vprintfmt+0x60>
    80002650:	00813703          	ld	a4,8(sp)
    80002654:	00100793          	li	a5,1
    80002658:	00870493          	addi	s1,a4,8
    8000265c:	16a7c863          	blt	a5,a0,800027cc <vprintfmt+0x408>
    80002660:	00813783          	ld	a5,8(sp)
    80002664:	16050863          	beqz	a0,800027d4 <vprintfmt+0x410>
    80002668:	0007ba03          	ld	s4,0(a5)
    8000266c:	000a5a63          	bgez	s4,80002680 <vprintfmt+0x2bc>
    80002670:	00090593          	mv	a1,s2
    80002674:	02d00513          	li	a0,45
    80002678:	000980e7          	jalr	s3
    8000267c:	41400a33          	neg	s4,s4
    80002680:	00913423          	sd	s1,8(sp)
    80002684:	00a00b93          	li	s7,10
    80002688:	f19ff06f          	j	800025a0 <vprintfmt+0x1dc>
    8000268c:	00174683          	lbu	a3,1(a4)
    80002690:	0015051b          	addiw	a0,a0,1
    80002694:	00040713          	mv	a4,s0
    80002698:	db9ff06f          	j	80002450 <vprintfmt+0x8c>
    8000269c:	01000b93          	li	s7,16
    800026a0:	00813683          	ld	a3,8(sp)
    800026a4:	00100713          	li	a4,1
    800026a8:	00868793          	addi	a5,a3,8
    800026ac:	10a74263          	blt	a4,a0,800027b0 <vprintfmt+0x3ec>
    800026b0:	ee0512e3          	bnez	a0,80002594 <vprintfmt+0x1d0>
    800026b4:	00813703          	ld	a4,8(sp)
    800026b8:	00f13423          	sd	a5,8(sp)
    800026bc:	00076a03          	lwu	s4,0(a4)
    800026c0:	ee1ff06f          	j	800025a0 <vprintfmt+0x1dc>
    800026c4:	00813783          	ld	a5,8(sp)
    800026c8:	0007ba03          	ld	s4,0(a5)
    800026cc:	00878b13          	addi	s6,a5,8
    800026d0:	100a0e63          	beqz	s4,800027ec <vprintfmt+0x428>
    800026d4:	09805a63          	blez	s8,80002768 <vprintfmt+0x3a4>
    800026d8:	02d00793          	li	a5,45
    800026dc:	04fc9e63          	bne	s9,a5,80002738 <vprintfmt+0x374>
    800026e0:	000a4503          	lbu	a0,0(s4)
    800026e4:	02050863          	beqz	a0,80002714 <vprintfmt+0x350>
    800026e8:	fff00c93          	li	s9,-1
    800026ec:	0004c663          	bltz	s1,800026f8 <vprintfmt+0x334>
    800026f0:	fff4849b          	addiw	s1,s1,-1
    800026f4:	01948e63          	beq	s1,s9,80002710 <vprintfmt+0x34c>
    800026f8:	00090593          	mv	a1,s2
    800026fc:	001a0a13          	addi	s4,s4,1
    80002700:	000980e7          	jalr	s3
    80002704:	000a4503          	lbu	a0,0(s4)
    80002708:	fffc0c1b          	addiw	s8,s8,-1
    8000270c:	fe0510e3          	bnez	a0,800026ec <vprintfmt+0x328>
    80002710:	01805c63          	blez	s8,80002728 <vprintfmt+0x364>
    80002714:	fffc0c1b          	addiw	s8,s8,-1
    80002718:	00090593          	mv	a1,s2
    8000271c:	02000513          	li	a0,32
    80002720:	000980e7          	jalr	s3
    80002724:	fe0c18e3          	bnez	s8,80002714 <vprintfmt+0x350>
    80002728:	01613423          	sd	s6,8(sp)
    8000272c:	cf9ff06f          	j	80002424 <vprintfmt+0x60>
    80002730:	00001a17          	auipc	s4,0x1
    80002734:	6d0a0a13          	addi	s4,s4,1744 # 80003e00 <main+0xe4c>
    80002738:	000c061b          	sext.w	a2,s8
    8000273c:	000a0793          	mv	a5,s4
    80002740:	009a06b3          	add	a3,s4,s1
    80002744:	00049863          	bnez	s1,80002754 <vprintfmt+0x390>
    80002748:	0c40006f          	j	8000280c <vprintfmt+0x448>
    8000274c:	00178793          	addi	a5,a5,1
    80002750:	00d78663          	beq	a5,a3,8000275c <vprintfmt+0x398>
    80002754:	0007c703          	lbu	a4,0(a5)
    80002758:	fe071ae3          	bnez	a4,8000274c <vprintfmt+0x388>
    8000275c:	414787b3          	sub	a5,a5,s4
    80002760:	40f60c3b          	subw	s8,a2,a5
    80002764:	0b804463          	bgtz	s8,8000280c <vprintfmt+0x448>
    80002768:	000a4503          	lbu	a0,0(s4)
    8000276c:	fa050ee3          	beqz	a0,80002728 <vprintfmt+0x364>
    80002770:	fff00c93          	li	s9,-1
    80002774:	f79ff06f          	j	800026ec <vprintfmt+0x328>
    80002778:	fffc4793          	not	a5,s8
    8000277c:	43f7d793          	srai	a5,a5,0x3f
    80002780:	00fc7c33          	and	s8,s8,a5
    80002784:	00174683          	lbu	a3,1(a4)
    80002788:	000c0c1b          	sext.w	s8,s8
    8000278c:	00040713          	mv	a4,s0
    80002790:	cc1ff06f          	j	80002450 <vprintfmt+0x8c>
    80002794:	00813783          	ld	a5,8(sp)
    80002798:	00090593          	mv	a1,s2
    8000279c:	0007a503          	lw	a0,0(a5)
    800027a0:	00878b13          	addi	s6,a5,8
    800027a4:	000980e7          	jalr	s3
    800027a8:	01613423          	sd	s6,8(sp)
    800027ac:	c79ff06f          	j	80002424 <vprintfmt+0x60>
    800027b0:	0006ba03          	ld	s4,0(a3)
    800027b4:	00f13423          	sd	a5,8(sp)
    800027b8:	de9ff06f          	j	800025a0 <vprintfmt+0x1dc>
    800027bc:	00100793          	li	a5,1
    800027c0:	00000d13          	li	s10,0
    800027c4:	e387cae3          	blt	a5,s8,800025f8 <vprintfmt+0x234>
    800027c8:	e49ff06f          	j	80002610 <vprintfmt+0x24c>
    800027cc:	00073a03          	ld	s4,0(a4)
    800027d0:	e9dff06f          	j	8000266c <vprintfmt+0x2a8>
    800027d4:	0007aa03          	lw	s4,0(a5)
    800027d8:	e95ff06f          	j	8000266c <vprintfmt+0x2a8>
    800027dc:	00800b93          	li	s7,8
    800027e0:	ec1ff06f          	j	800026a0 <vprintfmt+0x2dc>
    800027e4:	00a00b93          	li	s7,10
    800027e8:	eb9ff06f          	j	800026a0 <vprintfmt+0x2dc>
    800027ec:	03805e63          	blez	s8,80002828 <vprintfmt+0x464>
    800027f0:	02d00793          	li	a5,45
    800027f4:	f2fc9ee3          	bne	s9,a5,80002730 <vprintfmt+0x36c>
    800027f8:	02800513          	li	a0,40
    800027fc:	00001a17          	auipc	s4,0x1
    80002800:	604a0a13          	addi	s4,s4,1540 # 80003e00 <main+0xe4c>
    80002804:	fff00c93          	li	s9,-1
    80002808:	ee5ff06f          	j	800026ec <vprintfmt+0x328>
    8000280c:	000c8c9b          	sext.w	s9,s9
    80002810:	fffc0c1b          	addiw	s8,s8,-1
    80002814:	00090593          	mv	a1,s2
    80002818:	000c8513          	mv	a0,s9
    8000281c:	000980e7          	jalr	s3
    80002820:	fe0c18e3          	bnez	s8,80002810 <vprintfmt+0x44c>
    80002824:	f45ff06f          	j	80002768 <vprintfmt+0x3a4>
    80002828:	00001a17          	auipc	s4,0x1
    8000282c:	5d8a0a13          	addi	s4,s4,1496 # 80003e00 <main+0xe4c>
    80002830:	02800513          	li	a0,40
    80002834:	fff00c93          	li	s9,-1
    80002838:	eb5ff06f          	j	800026ec <vprintfmt+0x328>

000000008000283c <sprintf_putch.3105>:
    8000283c:	0005b783          	ld	a5,0(a1)
    80002840:	00a78023          	sb	a0,0(a5)
    80002844:	0005b783          	ld	a5,0(a1)
    80002848:	00178793          	addi	a5,a5,1
    8000284c:	00f5b023          	sd	a5,0(a1)
    80002850:	00008067          	ret

0000000080002854 <putchar>:
    80002854:	04022803          	lw	a6,64(tp) # 40 <buflen.2991>
    80002858:	00020793          	mv	a5,tp
    8000285c:	010787b3          	add	a5,a5,a6
    80002860:	f9010113          	addi	sp,sp,-112
    80002864:	0018071b          	addiw	a4,a6,1
    80002868:	04e22023          	sw	a4,64(tp) # 40 <buflen.2991>
    8000286c:	00a78023          	sb	a0,0(a5)
    80002870:	00a00593          	li	a1,10
    80002874:	03f10793          	addi	a5,sp,63
    80002878:	fc07f793          	andi	a5,a5,-64
    8000287c:	00b50c63          	beq	a0,a1,80002894 <putchar+0x40>
    80002880:	04000593          	li	a1,64
    80002884:	00b70863          	beq	a4,a1,80002894 <putchar+0x40>
    80002888:	00000513          	li	a0,0
    8000288c:	07010113          	addi	sp,sp,112
    80002890:	00008067          	ret
    80002894:	04000593          	li	a1,64
    80002898:	00b7b023          	sd	a1,0(a5)
    8000289c:	00100593          	li	a1,1
    800028a0:	00b7b423          	sd	a1,8(a5)
    800028a4:	00020693          	mv	a3,tp
    800028a8:	00d7b823          	sd	a3,16(a5)
    800028ac:	00e7bc23          	sd	a4,24(a5)
    800028b0:	0ff0000f          	fence
    800028b4:	ffffe697          	auipc	a3,0xffffe
    800028b8:	78c68693          	addi	a3,a3,1932 # 80001040 <fromhost>
    800028bc:	ffffe717          	auipc	a4,0xffffe
    800028c0:	74f73223          	sd	a5,1860(a4) # 80001000 <tohost>
    800028c4:	0006b703          	ld	a4,0(a3)
    800028c8:	fe070ee3          	beqz	a4,800028c4 <putchar+0x70>
    800028cc:	ffffe717          	auipc	a4,0xffffe
    800028d0:	76073a23          	sd	zero,1908(a4) # 80001040 <fromhost>
    800028d4:	0ff0000f          	fence
    800028d8:	04022023          	sw	zero,64(tp) # 40 <buflen.2991>
    800028dc:	0007b783          	ld	a5,0(a5)
    800028e0:	00000513          	li	a0,0
    800028e4:	07010113          	addi	sp,sp,112
    800028e8:	00008067          	ret

00000000800028ec <setStats>:
    800028ec:	b0002773          	csrr	a4,mcycle
    800028f0:	00004797          	auipc	a5,0x4
    800028f4:	ed878793          	addi	a5,a5,-296 # 800067c8 <counters>
    800028f8:	00051c63          	bnez	a0,80002910 <setStats+0x24>
    800028fc:	0007b683          	ld	a3,0(a5)
    80002900:	00001617          	auipc	a2,0x1
    80002904:	50860613          	addi	a2,a2,1288 # 80003e08 <main+0xe54>
    80002908:	00c7b823          	sd	a2,16(a5)
    8000290c:	40d70733          	sub	a4,a4,a3
    80002910:	00e7b023          	sd	a4,0(a5)
    80002914:	b0202773          	csrr	a4,minstret
    80002918:	00051c63          	bnez	a0,80002930 <setStats+0x44>
    8000291c:	0087b683          	ld	a3,8(a5)
    80002920:	00001617          	auipc	a2,0x1
    80002924:	4f060613          	addi	a2,a2,1264 # 80003e10 <main+0xe5c>
    80002928:	00c7bc23          	sd	a2,24(a5)
    8000292c:	40d70733          	sub	a4,a4,a3
    80002930:	00e7b423          	sd	a4,8(a5)
    80002934:	00008067          	ret

0000000080002938 <tohost_exit>:
    80002938:	00151793          	slli	a5,a0,0x1
    8000293c:	0017e793          	ori	a5,a5,1
    80002940:	ffffe717          	auipc	a4,0xffffe
    80002944:	6cf73023          	sd	a5,1728(a4) # 80001000 <tohost>
    80002948:	0000006f          	j	80002948 <tohost_exit+0x10>

000000008000294c <handle_trap>:
    8000294c:	000017b7          	lui	a5,0x1
    80002950:	a7378793          	addi	a5,a5,-1421 # a73 <buflen.2991+0xa33>
    80002954:	ffffe717          	auipc	a4,0xffffe
    80002958:	6af73623          	sd	a5,1708(a4) # 80001000 <tohost>
    8000295c:	0000006f          	j	8000295c <handle_trap+0x10>

0000000080002960 <exit>:
    80002960:	ff010113          	addi	sp,sp,-16
    80002964:	00113423          	sd	ra,8(sp)
    80002968:	fd1ff0ef          	jal	ra,80002938 <tohost_exit>

000000008000296c <abort>:
    8000296c:	10d00793          	li	a5,269
    80002970:	ffffe717          	auipc	a4,0xffffe
    80002974:	68f73823          	sd	a5,1680(a4) # 80001000 <tohost>
    80002978:	0000006f          	j	80002978 <abort+0xc>

000000008000297c <printstr>:
    8000297c:	00054783          	lbu	a5,0(a0)
    80002980:	f9010113          	addi	sp,sp,-112
    80002984:	03f10693          	addi	a3,sp,63
    80002988:	fc06f693          	andi	a3,a3,-64
    8000298c:	06078263          	beqz	a5,800029f0 <printstr+0x74>
    80002990:	00050793          	mv	a5,a0
    80002994:	0017c703          	lbu	a4,1(a5)
    80002998:	00178793          	addi	a5,a5,1
    8000299c:	fe071ce3          	bnez	a4,80002994 <printstr+0x18>
    800029a0:	40a787b3          	sub	a5,a5,a0
    800029a4:	04000713          	li	a4,64
    800029a8:	00e6b023          	sd	a4,0(a3)
    800029ac:	00100713          	li	a4,1
    800029b0:	00e6b423          	sd	a4,8(a3)
    800029b4:	00a6b823          	sd	a0,16(a3)
    800029b8:	00f6bc23          	sd	a5,24(a3)
    800029bc:	0ff0000f          	fence
    800029c0:	ffffe717          	auipc	a4,0xffffe
    800029c4:	68070713          	addi	a4,a4,1664 # 80001040 <fromhost>
    800029c8:	ffffe797          	auipc	a5,0xffffe
    800029cc:	62d7bc23          	sd	a3,1592(a5) # 80001000 <tohost>
    800029d0:	00073783          	ld	a5,0(a4)
    800029d4:	fe078ee3          	beqz	a5,800029d0 <printstr+0x54>
    800029d8:	ffffe797          	auipc	a5,0xffffe
    800029dc:	6607b423          	sd	zero,1640(a5) # 80001040 <fromhost>
    800029e0:	0ff0000f          	fence
    800029e4:	0006b783          	ld	a5,0(a3)
    800029e8:	07010113          	addi	sp,sp,112
    800029ec:	00008067          	ret
    800029f0:	00000793          	li	a5,0
    800029f4:	fb1ff06f          	j	800029a4 <printstr+0x28>

00000000800029f8 <thread_entry>:
    800029f8:	00051063          	bnez	a0,800029f8 <thread_entry>
    800029fc:	00008067          	ret

0000000080002a00 <printhex>:
    80002a00:	fd010113          	addi	sp,sp,-48
    80002a04:	00050793          	mv	a5,a0
    80002a08:	02113423          	sd	ra,40(sp)
    80002a0c:	00810513          	addi	a0,sp,8
    80002a10:	01710613          	addi	a2,sp,23
    80002a14:	00900813          	li	a6,9
    80002a18:	0080006f          	j	80002a20 <printhex+0x20>
    80002a1c:	00070613          	mv	a2,a4
    80002a20:	00f7f693          	andi	a3,a5,15
    80002a24:	00068713          	mv	a4,a3
    80002a28:	03000593          	li	a1,48
    80002a2c:	00d87463          	bgeu	a6,a3,80002a34 <printhex+0x34>
    80002a30:	05700593          	li	a1,87
    80002a34:	00b7073b          	addw	a4,a4,a1
    80002a38:	00e60023          	sb	a4,0(a2)
    80002a3c:	0047d793          	srli	a5,a5,0x4
    80002a40:	fff60713          	addi	a4,a2,-1
    80002a44:	fcc51ce3          	bne	a0,a2,80002a1c <printhex+0x1c>
    80002a48:	00010c23          	sb	zero,24(sp)
    80002a4c:	f31ff0ef          	jal	ra,8000297c <printstr>
    80002a50:	02813083          	ld	ra,40(sp)
    80002a54:	03010113          	addi	sp,sp,48
    80002a58:	00008067          	ret

0000000080002a5c <printf>:
    80002a5c:	fa010113          	addi	sp,sp,-96
    80002a60:	02810313          	addi	t1,sp,40
    80002a64:	00050e13          	mv	t3,a0
    80002a68:	02b13423          	sd	a1,40(sp)
    80002a6c:	02c13823          	sd	a2,48(sp)
    80002a70:	02d13c23          	sd	a3,56(sp)
    80002a74:	00000517          	auipc	a0,0x0
    80002a78:	de050513          	addi	a0,a0,-544 # 80002854 <putchar>
    80002a7c:	00030693          	mv	a3,t1
    80002a80:	000e0613          	mv	a2,t3
    80002a84:	00000593          	li	a1,0
    80002a88:	00113c23          	sd	ra,24(sp)
    80002a8c:	04e13023          	sd	a4,64(sp)
    80002a90:	04f13423          	sd	a5,72(sp)
    80002a94:	05013823          	sd	a6,80(sp)
    80002a98:	05113c23          	sd	a7,88(sp)
    80002a9c:	00613423          	sd	t1,8(sp)
    80002aa0:	925ff0ef          	jal	ra,800023c4 <vprintfmt>
    80002aa4:	01813083          	ld	ra,24(sp)
    80002aa8:	00000513          	li	a0,0
    80002aac:	06010113          	addi	sp,sp,96
    80002ab0:	00008067          	ret

0000000080002ab4 <sprintf>:
    80002ab4:	fa010113          	addi	sp,sp,-96
    80002ab8:	03010313          	addi	t1,sp,48
    80002abc:	02813023          	sd	s0,32(sp)
    80002ac0:	00a13423          	sd	a0,8(sp)
    80002ac4:	02c13823          	sd	a2,48(sp)
    80002ac8:	02d13c23          	sd	a3,56(sp)
    80002acc:	00050413          	mv	s0,a0
    80002ad0:	00058613          	mv	a2,a1
    80002ad4:	00000517          	auipc	a0,0x0
    80002ad8:	d6850513          	addi	a0,a0,-664 # 8000283c <sprintf_putch.3105>
    80002adc:	00810593          	addi	a1,sp,8
    80002ae0:	00030693          	mv	a3,t1
    80002ae4:	02113423          	sd	ra,40(sp)
    80002ae8:	04f13423          	sd	a5,72(sp)
    80002aec:	04e13023          	sd	a4,64(sp)
    80002af0:	05013823          	sd	a6,80(sp)
    80002af4:	05113c23          	sd	a7,88(sp)
    80002af8:	00613c23          	sd	t1,24(sp)
    80002afc:	8c9ff0ef          	jal	ra,800023c4 <vprintfmt>
    80002b00:	00813783          	ld	a5,8(sp)
    80002b04:	00078023          	sb	zero,0(a5)
    80002b08:	00813503          	ld	a0,8(sp)
    80002b0c:	02813083          	ld	ra,40(sp)
    80002b10:	4085053b          	subw	a0,a0,s0
    80002b14:	02013403          	ld	s0,32(sp)
    80002b18:	06010113          	addi	sp,sp,96
    80002b1c:	00008067          	ret

0000000080002b20 <memcpy>:
    80002b20:	00c5e7b3          	or	a5,a1,a2
    80002b24:	00f567b3          	or	a5,a0,a5
    80002b28:	0077f793          	andi	a5,a5,7
    80002b2c:	00c50833          	add	a6,a0,a2
    80002b30:	02078463          	beqz	a5,80002b58 <memcpy+0x38>
    80002b34:	00c58633          	add	a2,a1,a2
    80002b38:	00050793          	mv	a5,a0
    80002b3c:	0b057863          	bgeu	a0,a6,80002bec <memcpy+0xcc>
    80002b40:	0005c703          	lbu	a4,0(a1)
    80002b44:	00158593          	addi	a1,a1,1
    80002b48:	00178793          	addi	a5,a5,1
    80002b4c:	fee78fa3          	sb	a4,-1(a5)
    80002b50:	fec598e3          	bne	a1,a2,80002b40 <memcpy+0x20>
    80002b54:	00008067          	ret
    80002b58:	04050693          	addi	a3,a0,64
    80002b5c:	0906fa63          	bgeu	a3,a6,80002bf0 <memcpy+0xd0>
    80002b60:	00068793          	mv	a5,a3
    80002b64:	00058713          	mv	a4,a1
    80002b68:	00073383          	ld	t2,0(a4)
    80002b6c:	00873283          	ld	t0,8(a4)
    80002b70:	01073f83          	ld	t6,16(a4)
    80002b74:	01873f03          	ld	t5,24(a4)
    80002b78:	02073e83          	ld	t4,32(a4)
    80002b7c:	02873e03          	ld	t3,40(a4)
    80002b80:	03073303          	ld	t1,48(a4)
    80002b84:	03873883          	ld	a7,56(a4)
    80002b88:	04078793          	addi	a5,a5,64
    80002b8c:	f877b023          	sd	t2,-128(a5)
    80002b90:	f857b423          	sd	t0,-120(a5)
    80002b94:	f9f7b823          	sd	t6,-112(a5)
    80002b98:	f9e7bc23          	sd	t5,-104(a5)
    80002b9c:	fbd7b023          	sd	t4,-96(a5)
    80002ba0:	fbc7b423          	sd	t3,-88(a5)
    80002ba4:	fa67b823          	sd	t1,-80(a5)
    80002ba8:	fb17bc23          	sd	a7,-72(a5)
    80002bac:	04070713          	addi	a4,a4,64
    80002bb0:	fb07ece3          	bltu	a5,a6,80002b68 <memcpy+0x48>
    80002bb4:	fbf60613          	addi	a2,a2,-65
    80002bb8:	00665613          	srli	a2,a2,0x6
    80002bbc:	00160793          	addi	a5,a2,1
    80002bc0:	00679793          	slli	a5,a5,0x6
    80002bc4:	00661613          	slli	a2,a2,0x6
    80002bc8:	00f585b3          	add	a1,a1,a5
    80002bcc:	00c687b3          	add	a5,a3,a2
    80002bd0:	f907f2e3          	bgeu	a5,a6,80002b54 <memcpy+0x34>
    80002bd4:	0005b703          	ld	a4,0(a1)
    80002bd8:	00878793          	addi	a5,a5,8
    80002bdc:	00858593          	addi	a1,a1,8
    80002be0:	fee7bc23          	sd	a4,-8(a5)
    80002be4:	ff07e8e3          	bltu	a5,a6,80002bd4 <memcpy+0xb4>
    80002be8:	00008067          	ret
    80002bec:	00008067          	ret
    80002bf0:	00050793          	mv	a5,a0
    80002bf4:	fddff06f          	j	80002bd0 <memcpy+0xb0>

0000000080002bf8 <memset>:
    80002bf8:	00c567b3          	or	a5,a0,a2
    80002bfc:	0077f793          	andi	a5,a5,7
    80002c00:	00c50633          	add	a2,a0,a2
    80002c04:	0ff5f593          	andi	a1,a1,255
    80002c08:	00078e63          	beqz	a5,80002c24 <memset+0x2c>
    80002c0c:	00050793          	mv	a5,a0
    80002c10:	04c57263          	bgeu	a0,a2,80002c54 <memset+0x5c>
    80002c14:	00178793          	addi	a5,a5,1
    80002c18:	feb78fa3          	sb	a1,-1(a5)
    80002c1c:	fef61ce3          	bne	a2,a5,80002c14 <memset+0x1c>
    80002c20:	00008067          	ret
    80002c24:	00859793          	slli	a5,a1,0x8
    80002c28:	00f5e7b3          	or	a5,a1,a5
    80002c2c:	01079593          	slli	a1,a5,0x10
    80002c30:	00b7e7b3          	or	a5,a5,a1
    80002c34:	02079713          	slli	a4,a5,0x20
    80002c38:	00e7e7b3          	or	a5,a5,a4
    80002c3c:	fec572e3          	bgeu	a0,a2,80002c20 <memset+0x28>
    80002c40:	00050713          	mv	a4,a0
    80002c44:	00870713          	addi	a4,a4,8
    80002c48:	fef73c23          	sd	a5,-8(a4)
    80002c4c:	fec76ce3          	bltu	a4,a2,80002c44 <memset+0x4c>
    80002c50:	00008067          	ret
    80002c54:	00008067          	ret

0000000080002c58 <_init>:
    80002c58:	f5010113          	addi	sp,sp,-176
    80002c5c:	00004797          	auipc	a5,0x4
    80002c60:	b8c78793          	addi	a5,a5,-1140 # 800067e8 <_tdata_begin>
    80002c64:	09413023          	sd	s4,128(sp)
    80002c68:	00004a17          	auipc	s4,0x4
    80002c6c:	b80a0a13          	addi	s4,s4,-1152 # 800067e8 <_tdata_begin>
    80002c70:	09313423          	sd	s3,136(sp)
    80002c74:	40fa09b3          	sub	s3,s4,a5
    80002c78:	08913c23          	sd	s1,152(sp)
    80002c7c:	09213823          	sd	s2,144(sp)
    80002c80:	00050493          	mv	s1,a0
    80002c84:	00058913          	mv	s2,a1
    80002c88:	00020513          	mv	a0,tp
    80002c8c:	00078593          	mv	a1,a5
    80002c90:	00098613          	mv	a2,s3
    80002c94:	0a113423          	sd	ra,168(sp)
    80002c98:	0a813023          	sd	s0,160(sp)
    80002c9c:	07513c23          	sd	s5,120(sp)
    80002ca0:	00020a93          	mv	s5,tp
    80002ca4:	e7dff0ef          	jal	ra,80002b20 <memcpy>
    80002ca8:	00004617          	auipc	a2,0x4
    80002cac:	b9c60613          	addi	a2,a2,-1124 # 80006844 <_tbss_end>
    80002cb0:	41460633          	sub	a2,a2,s4
    80002cb4:	00000593          	li	a1,0
    80002cb8:	013a8533          	add	a0,s5,s3
    80002cbc:	f3dff0ef          	jal	ra,80002bf8 <memset>
    80002cc0:	00090593          	mv	a1,s2
    80002cc4:	00048513          	mv	a0,s1
    80002cc8:	d31ff0ef          	jal	ra,800029f8 <thread_entry>
    80002ccc:	00000593          	li	a1,0
    80002cd0:	00000513          	li	a0,0
    80002cd4:	2e0000ef          	jal	ra,80002fb4 <main>
    80002cd8:	00004917          	auipc	s2,0x4
    80002cdc:	af090913          	addi	s2,s2,-1296 # 800067c8 <counters>
    80002ce0:	00093683          	ld	a3,0(s2)
    80002ce4:	03f10413          	addi	s0,sp,63
    80002ce8:	fc047413          	andi	s0,s0,-64
    80002cec:	00050493          	mv	s1,a0
    80002cf0:	04069063          	bnez	a3,80002d30 <_init+0xd8>
    80002cf4:	00893683          	ld	a3,8(s2)
    80002cf8:	00069663          	bnez	a3,80002d04 <_init+0xac>
    80002cfc:	00048513          	mv	a0,s1
    80002d00:	c39ff0ef          	jal	ra,80002938 <tohost_exit>
    80002d04:	00040993          	mv	s3,s0
    80002d08:	01893603          	ld	a2,24(s2)
    80002d0c:	00098513          	mv	a0,s3
    80002d10:	00001597          	auipc	a1,0x1
    80002d14:	12858593          	addi	a1,a1,296 # 80003e38 <main+0xe84>
    80002d18:	d9dff0ef          	jal	ra,80002ab4 <sprintf>
    80002d1c:	00a989b3          	add	s3,s3,a0
    80002d20:	fd340ee3          	beq	s0,s3,80002cfc <_init+0xa4>
    80002d24:	00040513          	mv	a0,s0
    80002d28:	c55ff0ef          	jal	ra,8000297c <printstr>
    80002d2c:	fd1ff06f          	j	80002cfc <_init+0xa4>
    80002d30:	01093603          	ld	a2,16(s2)
    80002d34:	00001597          	auipc	a1,0x1
    80002d38:	10458593          	addi	a1,a1,260 # 80003e38 <main+0xe84>
    80002d3c:	00040513          	mv	a0,s0
    80002d40:	d75ff0ef          	jal	ra,80002ab4 <sprintf>
    80002d44:	00893683          	ld	a3,8(s2)
    80002d48:	00a409b3          	add	s3,s0,a0
    80002d4c:	fc068ae3          	beqz	a3,80002d20 <_init+0xc8>
    80002d50:	fb9ff06f          	j	80002d08 <_init+0xb0>

0000000080002d54 <strlen>:
    80002d54:	00054783          	lbu	a5,0(a0)
    80002d58:	00078e63          	beqz	a5,80002d74 <strlen+0x20>
    80002d5c:	00050793          	mv	a5,a0
    80002d60:	0017c703          	lbu	a4,1(a5)
    80002d64:	00178793          	addi	a5,a5,1
    80002d68:	fe071ce3          	bnez	a4,80002d60 <strlen+0xc>
    80002d6c:	40a78533          	sub	a0,a5,a0
    80002d70:	00008067          	ret
    80002d74:	00000513          	li	a0,0
    80002d78:	00008067          	ret

0000000080002d7c <strnlen>:
    80002d7c:	00050613          	mv	a2,a0
    80002d80:	00b606b3          	add	a3,a2,a1
    80002d84:	00058513          	mv	a0,a1
    80002d88:	00060793          	mv	a5,a2
    80002d8c:	00059863          	bnez	a1,80002d9c <strnlen+0x20>
    80002d90:	01c0006f          	j	80002dac <strnlen+0x30>
    80002d94:	00178793          	addi	a5,a5,1
    80002d98:	00f68863          	beq	a3,a5,80002da8 <strnlen+0x2c>
    80002d9c:	0007c703          	lbu	a4,0(a5)
    80002da0:	fe071ae3          	bnez	a4,80002d94 <strnlen+0x18>
    80002da4:	40c78533          	sub	a0,a5,a2
    80002da8:	00008067          	ret
    80002dac:	00008067          	ret

0000000080002db0 <strcmp>:
    80002db0:	00054783          	lbu	a5,0(a0)
    80002db4:	00158593          	addi	a1,a1,1
    80002db8:	00150513          	addi	a0,a0,1
    80002dbc:	fff5c703          	lbu	a4,-1(a1)
    80002dc0:	00078a63          	beqz	a5,80002dd4 <strcmp+0x24>
    80002dc4:	fee786e3          	beq	a5,a4,80002db0 <strcmp>
    80002dc8:	0007851b          	sext.w	a0,a5
    80002dcc:	40e5053b          	subw	a0,a0,a4
    80002dd0:	00008067          	ret
    80002dd4:	00000513          	li	a0,0
    80002dd8:	ff5ff06f          	j	80002dcc <strcmp+0x1c>

0000000080002ddc <strcpy>:
    80002ddc:	00050793          	mv	a5,a0
    80002de0:	0005c703          	lbu	a4,0(a1)
    80002de4:	00178793          	addi	a5,a5,1
    80002de8:	00158593          	addi	a1,a1,1
    80002dec:	fee78fa3          	sb	a4,-1(a5)
    80002df0:	fe0718e3          	bnez	a4,80002de0 <strcpy+0x4>
    80002df4:	00008067          	ret

0000000080002df8 <atol>:
    80002df8:	00054703          	lbu	a4,0(a0)
    80002dfc:	02000693          	li	a3,32
    80002e00:	00050793          	mv	a5,a0
    80002e04:	00d71863          	bne	a4,a3,80002e14 <atol+0x1c>
    80002e08:	0017c703          	lbu	a4,1(a5)
    80002e0c:	00178793          	addi	a5,a5,1
    80002e10:	fed70ce3          	beq	a4,a3,80002e08 <atol+0x10>
    80002e14:	02d00693          	li	a3,45
    80002e18:	06d70063          	beq	a4,a3,80002e78 <atol+0x80>
    80002e1c:	02b00693          	li	a3,43
    80002e20:	04d70063          	beq	a4,a3,80002e60 <atol+0x68>
    80002e24:	0007c683          	lbu	a3,0(a5)
    80002e28:	00000593          	li	a1,0
    80002e2c:	04068263          	beqz	a3,80002e70 <atol+0x78>
    80002e30:	00000513          	li	a0,0
    80002e34:	00178793          	addi	a5,a5,1
    80002e38:	fd06861b          	addiw	a2,a3,-48
    80002e3c:	00251713          	slli	a4,a0,0x2
    80002e40:	0007c683          	lbu	a3,0(a5)
    80002e44:	00a70533          	add	a0,a4,a0
    80002e48:	00151513          	slli	a0,a0,0x1
    80002e4c:	00a60533          	add	a0,a2,a0
    80002e50:	fe0692e3          	bnez	a3,80002e34 <atol+0x3c>
    80002e54:	02058063          	beqz	a1,80002e74 <atol+0x7c>
    80002e58:	40a00533          	neg	a0,a0
    80002e5c:	00008067          	ret
    80002e60:	0017c683          	lbu	a3,1(a5)
    80002e64:	00000593          	li	a1,0
    80002e68:	00178793          	addi	a5,a5,1
    80002e6c:	fc0692e3          	bnez	a3,80002e30 <atol+0x38>
    80002e70:	00000513          	li	a0,0
    80002e74:	00008067          	ret
    80002e78:	0017c683          	lbu	a3,1(a5)
    80002e7c:	00100593          	li	a1,1
    80002e80:	00178793          	addi	a5,a5,1
    80002e84:	fa0696e3          	bnez	a3,80002e30 <atol+0x38>
    80002e88:	00000513          	li	a0,0
    80002e8c:	fe9ff06f          	j	80002e74 <atol+0x7c>

0000000080002e90 <__muldi3>:
    80002e90:	00050613          	mv	a2,a0
    80002e94:	00000513          	li	a0,0
    80002e98:	0015f693          	andi	a3,a1,1
    80002e9c:	00068463          	beqz	a3,80002ea4 <__muldi3+0x14>
    80002ea0:	00c50533          	add	a0,a0,a2
    80002ea4:	0015d593          	srli	a1,a1,0x1
    80002ea8:	00161613          	slli	a2,a2,0x1
    80002eac:	fe0596e3          	bnez	a1,80002e98 <__muldi3+0x8>
    80002eb0:	00008067          	ret

0000000080002eb4 <__udivsi3>:
    80002eb4:	02051513          	slli	a0,a0,0x20
    80002eb8:	02059593          	slli	a1,a1,0x20
    80002ebc:	00008293          	mv	t0,ra
    80002ec0:	03c000ef          	jal	ra,80002efc <__udivdi3>
    80002ec4:	0005051b          	sext.w	a0,a0
    80002ec8:	00028067          	jr	t0 # 2000 <buflen.2991+0x1fc0>

0000000080002ecc <__umodsi3>:
    80002ecc:	02051513          	slli	a0,a0,0x20
    80002ed0:	02059593          	slli	a1,a1,0x20
    80002ed4:	02055513          	srli	a0,a0,0x20
    80002ed8:	0205d593          	srli	a1,a1,0x20
    80002edc:	00008293          	mv	t0,ra
    80002ee0:	01c000ef          	jal	ra,80002efc <__udivdi3>
    80002ee4:	0005851b          	sext.w	a0,a1
    80002ee8:	00028067          	jr	t0

0000000080002eec <__divsi3>:
    80002eec:	fff00293          	li	t0,-1
    80002ef0:	0a558c63          	beq	a1,t0,80002fa8 <__moddi3+0x30>

0000000080002ef4 <__divdi3>:
    80002ef4:	06054063          	bltz	a0,80002f54 <__umoddi3+0x10>
    80002ef8:	0605c663          	bltz	a1,80002f64 <__umoddi3+0x20>

0000000080002efc <__udivdi3>:
    80002efc:	00058613          	mv	a2,a1
    80002f00:	00050593          	mv	a1,a0
    80002f04:	fff00513          	li	a0,-1
    80002f08:	02060c63          	beqz	a2,80002f40 <__udivdi3+0x44>
    80002f0c:	00100693          	li	a3,1
    80002f10:	00b67a63          	bgeu	a2,a1,80002f24 <__udivdi3+0x28>
    80002f14:	00c05863          	blez	a2,80002f24 <__udivdi3+0x28>
    80002f18:	00161613          	slli	a2,a2,0x1
    80002f1c:	00169693          	slli	a3,a3,0x1
    80002f20:	feb66ae3          	bltu	a2,a1,80002f14 <__udivdi3+0x18>
    80002f24:	00000513          	li	a0,0
    80002f28:	00c5e663          	bltu	a1,a2,80002f34 <__udivdi3+0x38>
    80002f2c:	40c585b3          	sub	a1,a1,a2
    80002f30:	00d56533          	or	a0,a0,a3
    80002f34:	0016d693          	srli	a3,a3,0x1
    80002f38:	00165613          	srli	a2,a2,0x1
    80002f3c:	fe0696e3          	bnez	a3,80002f28 <__udivdi3+0x2c>
    80002f40:	00008067          	ret

0000000080002f44 <__umoddi3>:
    80002f44:	00008293          	mv	t0,ra
    80002f48:	fb5ff0ef          	jal	ra,80002efc <__udivdi3>
    80002f4c:	00058513          	mv	a0,a1
    80002f50:	00028067          	jr	t0
    80002f54:	40a00533          	neg	a0,a0
    80002f58:	0005d863          	bgez	a1,80002f68 <__umoddi3+0x24>
    80002f5c:	40b005b3          	neg	a1,a1
    80002f60:	f9dff06f          	j	80002efc <__udivdi3>
    80002f64:	40b005b3          	neg	a1,a1
    80002f68:	00008293          	mv	t0,ra
    80002f6c:	f91ff0ef          	jal	ra,80002efc <__udivdi3>
    80002f70:	40a00533          	neg	a0,a0
    80002f74:	00028067          	jr	t0

0000000080002f78 <__moddi3>:
    80002f78:	00008293          	mv	t0,ra
    80002f7c:	0005ca63          	bltz	a1,80002f90 <__moddi3+0x18>
    80002f80:	00054c63          	bltz	a0,80002f98 <__moddi3+0x20>
    80002f84:	f79ff0ef          	jal	ra,80002efc <__udivdi3>
    80002f88:	00058513          	mv	a0,a1
    80002f8c:	00028067          	jr	t0
    80002f90:	40b005b3          	neg	a1,a1
    80002f94:	fe0558e3          	bgez	a0,80002f84 <__moddi3+0xc>
    80002f98:	40a00533          	neg	a0,a0
    80002f9c:	f61ff0ef          	jal	ra,80002efc <__udivdi3>
    80002fa0:	40b00533          	neg	a0,a1
    80002fa4:	00028067          	jr	t0
    80002fa8:	01f29293          	slli	t0,t0,0x1f
    80002fac:	f45514e3          	bne	a0,t0,80002ef4 <__divdi3>
    80002fb0:	00008067          	ret

Disassembly of section .text.startup:

0000000080002fb4 <main>:
    80002fb4:	f3010113          	addi	sp,sp,-208
    80002fb8:	0c113423          	sd	ra,200(sp)
    80002fbc:	0c813023          	sd	s0,192(sp)
    80002fc0:	0a913c23          	sd	s1,184(sp)
    80002fc4:	0d010413          	addi	s0,sp,208
    80002fc8:	0b213823          	sd	s2,176(sp)
    80002fcc:	0b313423          	sd	s3,168(sp)
    80002fd0:	0b413023          	sd	s4,160(sp)
    80002fd4:	09513c23          	sd	s5,152(sp)
    80002fd8:	09613823          	sd	s6,144(sp)
    80002fdc:	09713423          	sd	s7,136(sp)
    80002fe0:	09813023          	sd	s8,128(sp)
    80002fe4:	07913c23          	sd	s9,120(sp)
    80002fe8:	07a13823          	sd	s10,112(sp)
    80002fec:	07b13423          	sd	s11,104(sp)
    80002ff0:	00000797          	auipc	a5,0x0
    80002ff4:	7f078793          	addi	a5,a5,2032 # 800037e0 <main+0x82c>
    80002ff8:	fc010113          	addi	sp,sp,-64
    80002ffc:	00010613          	mv	a2,sp
    80003000:	0007a983          	lw	s3,0(a5)
    80003004:	fc010113          	addi	sp,sp,-64
    80003008:	00100693          	li	a3,1
    8000300c:	0047af83          	lw	t6,4(a5)
    80003010:	0087af03          	lw	t5,8(a5)
    80003014:	00c7ae83          	lw	t4,12(a5)
    80003018:	0107ae03          	lw	t3,16(a5)
    8000301c:	0147a303          	lw	t1,20(a5)
    80003020:	0187a883          	lw	a7,24(a5)
    80003024:	01c7d803          	lhu	a6,28(a5)
    80003028:	01e7c503          	lbu	a0,30(a5)
    8000302c:	02169693          	slli	a3,a3,0x21
    80003030:	00010793          	mv	a5,sp
    80003034:	00d7b423          	sd	a3,8(a5)
    80003038:	02800693          	li	a3,40
    8000303c:	00001717          	auipc	a4,0x1
    80003040:	d6470713          	addi	a4,a4,-668 # 80003da0 <main+0xdec>
    80003044:	00c7b023          	sd	a2,0(a5)
    80003048:	00d7a823          	sw	a3,16(a5)
    8000304c:	0137aa23          	sw	s3,20(a5)
    80003050:	00001697          	auipc	a3,0x1
    80003054:	f9068693          	addi	a3,a3,-112 # 80003fe0 <Next_Ptr_Glob>
    80003058:	01073383          	ld	t2,16(a4)
    8000305c:	01872283          	lw	t0,24(a4)
    80003060:	01c75583          	lhu	a1,28(a4)
    80003064:	00073903          	ld	s2,0(a4)
    80003068:	00873483          	ld	s1,8(a4)
    8000306c:	00c6b023          	sd	a2,0(a3)
    80003070:	84818693          	addi	a3,gp,-1976 # 80003fe8 <Ptr_Glob>
    80003074:	00f6b023          	sd	a5,0(a3)
    80003078:	01f7ac23          	sw	t6,24(a5)
    8000307c:	01e7ae23          	sw	t5,28(a5)
    80003080:	03d7a023          	sw	t4,32(a5)
    80003084:	03c7a223          	sw	t3,36(a5)
    80003088:	0267a423          	sw	t1,40(a5)
    8000308c:	0317a623          	sw	a7,44(a5)
    80003090:	03079823          	sh	a6,48(a5)
    80003094:	02a78923          	sb	a0,50(a5)
    80003098:	01e74783          	lbu	a5,30(a4)
    8000309c:	00001517          	auipc	a0,0x1
    800030a0:	9e450513          	addi	a0,a0,-1564 # 80003a80 <main+0xacc>
    800030a4:	00001717          	auipc	a4,0x1
    800030a8:	01470713          	addi	a4,a4,20 # 800040b8 <Arr_2_Glob>
    800030ac:	f6f40723          	sb	a5,-146(s0)
    800030b0:	00a00793          	li	a5,10
    800030b4:	64f72e23          	sw	a5,1628(a4)
    800030b8:	f6743023          	sd	t2,-160(s0)
    800030bc:	f6542423          	sw	t0,-152(s0)
    800030c0:	f6b41623          	sh	a1,-148(s0)
    800030c4:	f5243823          	sd	s2,-176(s0)
    800030c8:	f4943c23          	sd	s1,-168(s0)
    800030cc:	910ff0ef          	jal	ra,800021dc <debug_printf>
    800030d0:	00000597          	auipc	a1,0x0
    800030d4:	73058593          	addi	a1,a1,1840 # 80003800 <main+0x84c>
    800030d8:	00000517          	auipc	a0,0x0
    800030dc:	73850513          	addi	a0,a0,1848 # 80003810 <main+0x85c>
    800030e0:	8fcff0ef          	jal	ra,800021dc <debug_printf>
    800030e4:	00001797          	auipc	a5,0x1
    800030e8:	ee87a783          	lw	a5,-280(a5) # 80003fcc <Reg>
    800030ec:	6a078e63          	beqz	a5,800037a8 <main+0x7f4>
    800030f0:	00000517          	auipc	a0,0x0
    800030f4:	74850513          	addi	a0,a0,1864 # 80003838 <main+0x884>
    800030f8:	8e4ff0ef          	jal	ra,800021dc <debug_printf>
    800030fc:	000f4637          	lui	a2,0xf4
    80003100:	24060613          	addi	a2,a2,576 # f4240 <buflen.2991+0xf4200>
    80003104:	00000597          	auipc	a1,0x0
    80003108:	79458593          	addi	a1,a1,1940 # 80003898 <main+0x8e4>
    8000310c:	00000517          	auipc	a0,0x0
    80003110:	79c50513          	addi	a0,a0,1948 # 800038a8 <main+0x8f4>
    80003114:	8c8ff0ef          	jal	ra,800021dc <debug_printf>
    80003118:	00001517          	auipc	a0,0x1
    8000311c:	96850513          	addi	a0,a0,-1688 # 80003a80 <main+0xacc>
    80003120:	8bcff0ef          	jal	ra,800021dc <debug_printf>
    80003124:	1f400793          	li	a5,500
    80003128:	f2f43c23          	sd	a5,-200(s0)
    8000312c:	00001a97          	auipc	s5,0x1
    80003130:	c94a8a93          	addi	s5,s5,-876 # 80003dc0 <main+0xe0c>
    80003134:	00001797          	auipc	a5,0x1
    80003138:	e807aa23          	sw	zero,-364(a5) # 80003fc8 <Done>
    8000313c:	00001997          	auipc	s3,0x1
    80003140:	e9498993          	addi	s3,s3,-364 # 80003fd0 <Ch_2_Glob>
    80003144:	00001b97          	auipc	s7,0x1
    80003148:	e94b8b93          	addi	s7,s7,-364 # 80003fd8 <Int_Glob>
    8000314c:	00001d97          	auipc	s11,0x1
    80003150:	f6cd8d93          	addi	s11,s11,-148 # 800040b8 <Arr_2_Glob>
    80003154:	00001917          	auipc	s2,0x1
    80003158:	c8c90913          	addi	s2,s2,-884 # 80003de0 <main+0xe2c>
    8000315c:	f3843483          	ld	s1,-200(s0)
    80003160:	00000517          	auipc	a0,0x0
    80003164:	76050513          	addi	a0,a0,1888 # 800038c0 <main+0x90c>
    80003168:	00048593          	mv	a1,s1
    8000316c:	870ff0ef          	jal	ra,800021dc <debug_printf>
    80003170:	00100513          	li	a0,1
    80003174:	f78ff0ef          	jal	ra,800028ec <setStats>
    80003178:	b00027f3          	csrr	a5,mcycle
    8000317c:	00001717          	auipc	a4,0x1
    80003180:	e4470713          	addi	a4,a4,-444 # 80003fc0 <Begin_Time>
    80003184:	00148c9b          	addiw	s9,s1,1
    80003188:	00100a13          	li	s4,1
    8000318c:	00f73023          	sd	a5,0(a4)
    80003190:	00200493          	li	s1,2
    80003194:	a18ff0ef          	jal	ra,800023ac <Proc_5>
    80003198:	9e0ff0ef          	jal	ra,80002378 <Proc_4>
    8000319c:	01eac783          	lbu	a5,30(s5)
    800031a0:	01cad703          	lhu	a4,28(s5)
    800031a4:	000ab883          	ld	a7,0(s5)
    800031a8:	008ab803          	ld	a6,8(s5)
    800031ac:	010ab603          	ld	a2,16(s5)
    800031b0:	018aa683          	lw	a3,24(s5)
    800031b4:	f8f40723          	sb	a5,-114(s0)
    800031b8:	f7040593          	addi	a1,s0,-144
    800031bc:	00100793          	li	a5,1
    800031c0:	f5040513          	addi	a0,s0,-176
    800031c4:	f8e41623          	sh	a4,-116(s0)
    800031c8:	f4f42623          	sw	a5,-180(s0)
    800031cc:	f4942223          	sw	s1,-188(s0)
    800031d0:	f7143823          	sd	a7,-144(s0)
    800031d4:	f7043c23          	sd	a6,-136(s0)
    800031d8:	f8c43023          	sd	a2,-128(s0)
    800031dc:	f8d42423          	sw	a3,-120(s0)
    800031e0:	ecdfe0ef          	jal	ra,800020ac <Func_2>
    800031e4:	00050793          	mv	a5,a0
    800031e8:	f4442503          	lw	a0,-188(s0)
    800031ec:	0017b793          	seqz	a5,a5
    800031f0:	00001717          	auipc	a4,0x1
    800031f4:	de470713          	addi	a4,a4,-540 # 80003fd4 <Bool_Glob>
    800031f8:	00f72023          	sw	a5,0(a4)
    800031fc:	02a4c863          	blt	s1,a0,8000322c <main+0x278>
    80003200:	0025179b          	slliw	a5,a0,0x2
    80003204:	00a787bb          	addw	a5,a5,a0
    80003208:	ffd7879b          	addiw	a5,a5,-3
    8000320c:	f4840613          	addi	a2,s0,-184
    80003210:	00300593          	li	a1,3
    80003214:	f4f42423          	sw	a5,-184(s0)
    80003218:	de9fe0ef          	jal	ra,80002000 <Proc_7>
    8000321c:	f4442783          	lw	a5,-188(s0)
    80003220:	0017851b          	addiw	a0,a5,1
    80003224:	f4a42223          	sw	a0,-188(s0)
    80003228:	fca4dce3          	bge	s1,a0,80003200 <main+0x24c>
    8000322c:	f4842683          	lw	a3,-184(s0)
    80003230:	00050613          	mv	a2,a0
    80003234:	000d8593          	mv	a1,s11
    80003238:	85018513          	addi	a0,gp,-1968 # 80003ff0 <Arr_1_Glob>
    8000323c:	dd5fe0ef          	jal	ra,80002010 <Proc_8>
    80003240:	84818793          	addi	a5,gp,-1976 # 80003fe8 <Ptr_Glob>
    80003244:	0007b503          	ld	a0,0(a5)
    80003248:	818ff0ef          	jal	ra,80002260 <Proc_1>
    8000324c:	0009c703          	lbu	a4,0(s3)
    80003250:	04000793          	li	a5,64
    80003254:	50e7f663          	bgeu	a5,a4,80003760 <main+0x7ac>
    80003258:	04100c13          	li	s8,65
    8000325c:	00300b13          	li	s6,3
    80003260:	0140006f          	j	80003274 <main+0x2c0>
    80003264:	0009c703          	lbu	a4,0(s3)
    80003268:	001c079b          	addiw	a5,s8,1
    8000326c:	0ff7fc13          	andi	s8,a5,255
    80003270:	07876863          	bltu	a4,s8,800032e0 <main+0x32c>
    80003274:	04300593          	li	a1,67
    80003278:	000c0513          	mv	a0,s8
    8000327c:	e0dfe0ef          	jal	ra,80002088 <Func_1>
    80003280:	f4c42703          	lw	a4,-180(s0)
    80003284:	0005051b          	sext.w	a0,a0
    80003288:	fca71ee3          	bne	a4,a0,80003264 <main+0x2b0>
    8000328c:	f4c40593          	addi	a1,s0,-180
    80003290:	00000513          	li	a0,0
    80003294:	e8dfe0ef          	jal	ra,80002120 <Proc_6>
    80003298:	01e94703          	lbu	a4,30(s2)
    8000329c:	00093803          	ld	a6,0(s2)
    800032a0:	00893503          	ld	a0,8(s2)
    800032a4:	01093583          	ld	a1,16(s2)
    800032a8:	01892603          	lw	a2,24(s2)
    800032ac:	01c95683          	lhu	a3,28(s2)
    800032b0:	f8e40723          	sb	a4,-114(s0)
    800032b4:	0009c703          	lbu	a4,0(s3)
    800032b8:	001c079b          	addiw	a5,s8,1
    800032bc:	f7043823          	sd	a6,-144(s0)
    800032c0:	f6a43c23          	sd	a0,-136(s0)
    800032c4:	f8b43023          	sd	a1,-128(s0)
    800032c8:	f8c42423          	sw	a2,-120(s0)
    800032cc:	f8d41623          	sh	a3,-116(s0)
    800032d0:	014ba023          	sw	s4,0(s7)
    800032d4:	0ff7fc13          	andi	s8,a5,255
    800032d8:	000a0b13          	mv	s6,s4
    800032dc:	f9877ce3          	bgeu	a4,s8,80003274 <main+0x2c0>
    800032e0:	f4442583          	lw	a1,-188(s0)
    800032e4:	000b0513          	mv	a0,s6
    800032e8:	001a0a1b          	addiw	s4,s4,1
    800032ec:	ba5ff0ef          	jal	ra,80002e90 <__muldi3>
    800032f0:	f4842d03          	lw	s10,-184(s0)
    800032f4:	00050c1b          	sext.w	s8,a0
    800032f8:	000c0513          	mv	a0,s8
    800032fc:	000d0593          	mv	a1,s10
    80003300:	bf5ff0ef          	jal	ra,80002ef4 <__divdi3>
    80003304:	00050b1b          	sext.w	s6,a0
    80003308:	f4440513          	addi	a0,s0,-188
    8000330c:	f5642223          	sw	s6,-188(s0)
    80003310:	ef5fe0ef          	jal	ra,80002204 <Proc_2>
    80003314:	e94c90e3          	bne	s9,s4,80003194 <main+0x1e0>
    80003318:	b00026f3          	csrr	a3,mcycle
    8000331c:	00001797          	auipc	a5,0x1
    80003320:	c9c78793          	addi	a5,a5,-868 # 80003fb8 <End_Time>
    80003324:	00000513          	li	a0,0
    80003328:	00078493          	mv	s1,a5
    8000332c:	00d7b023          	sd	a3,0(a5)
    80003330:	dbcff0ef          	jal	ra,800028ec <setStats>
    80003334:	00001797          	auipc	a5,0x1
    80003338:	c8c78793          	addi	a5,a5,-884 # 80003fc0 <Begin_Time>
    8000333c:	0007b603          	ld	a2,0(a5)
    80003340:	0004b683          	ld	a3,0(s1)
    80003344:	00001797          	auipc	a5,0x1
    80003348:	c6c78793          	addi	a5,a5,-916 # 80003fb0 <User_Time>
    8000334c:	40c686b3          	sub	a3,a3,a2
    80003350:	00d7b023          	sd	a3,0(a5)
    80003354:	40d05a63          	blez	a3,80003768 <main+0x7b4>
    80003358:	00100693          	li	a3,1
    8000335c:	00001797          	auipc	a5,0x1
    80003360:	c6c78793          	addi	a5,a5,-916 # 80003fc8 <Done>
    80003364:	00d7a023          	sw	a3,0(a5)
    80003368:	00000517          	auipc	a0,0x0
    8000336c:	5b850513          	addi	a0,a0,1464 # 80003920 <main+0x96c>
    80003370:	e6dfe0ef          	jal	ra,800021dc <debug_printf>
    80003374:	00000517          	auipc	a0,0x0
    80003378:	70c50513          	addi	a0,a0,1804 # 80003a80 <main+0xacc>
    8000337c:	e61fe0ef          	jal	ra,800021dc <debug_printf>
    80003380:	000ba583          	lw	a1,0(s7)
    80003384:	00000517          	auipc	a0,0x0
    80003388:	5d450513          	addi	a0,a0,1492 # 80003958 <main+0x9a4>
    8000338c:	84818913          	addi	s2,gp,-1976 # 80003fe8 <Ptr_Glob>
    80003390:	e4dfe0ef          	jal	ra,800021dc <debug_printf>
    80003394:	00500593          	li	a1,5
    80003398:	00000517          	auipc	a0,0x0
    8000339c:	5e050513          	addi	a0,a0,1504 # 80003978 <main+0x9c4>
    800033a0:	e3dfe0ef          	jal	ra,800021dc <debug_printf>
    800033a4:	00001797          	auipc	a5,0x1
    800033a8:	c3078793          	addi	a5,a5,-976 # 80003fd4 <Bool_Glob>
    800033ac:	0007a583          	lw	a1,0(a5)
    800033b0:	00000517          	auipc	a0,0x0
    800033b4:	5e850513          	addi	a0,a0,1512 # 80003998 <main+0x9e4>
    800033b8:	00001497          	auipc	s1,0x1
    800033bc:	be848493          	addi	s1,s1,-1048 # 80003fa0 <Dhrystones_Per_Second>
    800033c0:	e1dfe0ef          	jal	ra,800021dc <debug_printf>
    800033c4:	00100593          	li	a1,1
    800033c8:	00000517          	auipc	a0,0x0
    800033cc:	5b050513          	addi	a0,a0,1456 # 80003978 <main+0x9c4>
    800033d0:	e0dfe0ef          	jal	ra,800021dc <debug_printf>
    800033d4:	00001597          	auipc	a1,0x1
    800033d8:	bfd5c583          	lbu	a1,-1027(a1) # 80003fd1 <Ch_1_Glob>
    800033dc:	00000517          	auipc	a0,0x0
    800033e0:	5dc50513          	addi	a0,a0,1500 # 800039b8 <main+0xa04>
    800033e4:	df9fe0ef          	jal	ra,800021dc <debug_printf>
    800033e8:	04100593          	li	a1,65
    800033ec:	00000517          	auipc	a0,0x0
    800033f0:	5ec50513          	addi	a0,a0,1516 # 800039d8 <main+0xa24>
    800033f4:	de9fe0ef          	jal	ra,800021dc <debug_printf>
    800033f8:	0009c583          	lbu	a1,0(s3)
    800033fc:	00000517          	auipc	a0,0x0
    80003400:	5fc50513          	addi	a0,a0,1532 # 800039f8 <main+0xa44>
    80003404:	dd9fe0ef          	jal	ra,800021dc <debug_printf>
    80003408:	04200593          	li	a1,66
    8000340c:	00000517          	auipc	a0,0x0
    80003410:	5cc50513          	addi	a0,a0,1484 # 800039d8 <main+0xa24>
    80003414:	dc9fe0ef          	jal	ra,800021dc <debug_printf>
    80003418:	8701a583          	lw	a1,-1936(gp) # 80004010 <Arr_1_Glob+0x20>
    8000341c:	00000517          	auipc	a0,0x0
    80003420:	5fc50513          	addi	a0,a0,1532 # 80003a18 <main+0xa64>
    80003424:	db9fe0ef          	jal	ra,800021dc <debug_printf>
    80003428:	00700593          	li	a1,7
    8000342c:	00000517          	auipc	a0,0x0
    80003430:	54c50513          	addi	a0,a0,1356 # 80003978 <main+0x9c4>
    80003434:	da9fe0ef          	jal	ra,800021dc <debug_printf>
    80003438:	00001797          	auipc	a5,0x1
    8000343c:	c8078793          	addi	a5,a5,-896 # 800040b8 <Arr_2_Glob>
    80003440:	65c7a583          	lw	a1,1628(a5)
    80003444:	00000517          	auipc	a0,0x0
    80003448:	5f450513          	addi	a0,a0,1524 # 80003a38 <main+0xa84>
    8000344c:	d91fe0ef          	jal	ra,800021dc <debug_printf>
    80003450:	00000517          	auipc	a0,0x0
    80003454:	60850513          	addi	a0,a0,1544 # 80003a58 <main+0xaa4>
    80003458:	d85fe0ef          	jal	ra,800021dc <debug_printf>
    8000345c:	00000517          	auipc	a0,0x0
    80003460:	62c50513          	addi	a0,a0,1580 # 80003a88 <main+0xad4>
    80003464:	d79fe0ef          	jal	ra,800021dc <debug_printf>
    80003468:	00093683          	ld	a3,0(s2)
    8000346c:	00000517          	auipc	a0,0x0
    80003470:	62c50513          	addi	a0,a0,1580 # 80003a98 <main+0xae4>
    80003474:	0006b583          	ld	a1,0(a3)
    80003478:	d65fe0ef          	jal	ra,800021dc <debug_printf>
    8000347c:	00000517          	auipc	a0,0x0
    80003480:	63c50513          	addi	a0,a0,1596 # 80003ab8 <main+0xb04>
    80003484:	d59fe0ef          	jal	ra,800021dc <debug_printf>
    80003488:	00093683          	ld	a3,0(s2)
    8000348c:	00000517          	auipc	a0,0x0
    80003490:	66450513          	addi	a0,a0,1636 # 80003af0 <main+0xb3c>
    80003494:	0086a583          	lw	a1,8(a3)
    80003498:	d45fe0ef          	jal	ra,800021dc <debug_printf>
    8000349c:	00000593          	li	a1,0
    800034a0:	00000517          	auipc	a0,0x0
    800034a4:	4d850513          	addi	a0,a0,1240 # 80003978 <main+0x9c4>
    800034a8:	d35fe0ef          	jal	ra,800021dc <debug_printf>
    800034ac:	00093683          	ld	a3,0(s2)
    800034b0:	00000517          	auipc	a0,0x0
    800034b4:	66050513          	addi	a0,a0,1632 # 80003b10 <main+0xb5c>
    800034b8:	00c6a583          	lw	a1,12(a3)
    800034bc:	d21fe0ef          	jal	ra,800021dc <debug_printf>
    800034c0:	00200593          	li	a1,2
    800034c4:	00000517          	auipc	a0,0x0
    800034c8:	4b450513          	addi	a0,a0,1204 # 80003978 <main+0x9c4>
    800034cc:	d11fe0ef          	jal	ra,800021dc <debug_printf>
    800034d0:	00093683          	ld	a3,0(s2)
    800034d4:	00000517          	auipc	a0,0x0
    800034d8:	65c50513          	addi	a0,a0,1628 # 80003b30 <main+0xb7c>
    800034dc:	0106a583          	lw	a1,16(a3)
    800034e0:	cfdfe0ef          	jal	ra,800021dc <debug_printf>
    800034e4:	01100593          	li	a1,17
    800034e8:	00000517          	auipc	a0,0x0
    800034ec:	49050513          	addi	a0,a0,1168 # 80003978 <main+0x9c4>
    800034f0:	cedfe0ef          	jal	ra,800021dc <debug_printf>
    800034f4:	00093583          	ld	a1,0(s2)
    800034f8:	00000517          	auipc	a0,0x0
    800034fc:	65850513          	addi	a0,a0,1624 # 80003b50 <main+0xb9c>
    80003500:	00001917          	auipc	s2,0x1
    80003504:	ae090913          	addi	s2,s2,-1312 # 80003fe0 <Next_Ptr_Glob>
    80003508:	01458593          	addi	a1,a1,20
    8000350c:	cd1fe0ef          	jal	ra,800021dc <debug_printf>
    80003510:	00000517          	auipc	a0,0x0
    80003514:	66050513          	addi	a0,a0,1632 # 80003b70 <main+0xbbc>
    80003518:	cc5fe0ef          	jal	ra,800021dc <debug_printf>
    8000351c:	00000517          	auipc	a0,0x0
    80003520:	68c50513          	addi	a0,a0,1676 # 80003ba8 <main+0xbf4>
    80003524:	cb9fe0ef          	jal	ra,800021dc <debug_printf>
    80003528:	00093683          	ld	a3,0(s2)
    8000352c:	00000517          	auipc	a0,0x0
    80003530:	56c50513          	addi	a0,a0,1388 # 80003a98 <main+0xae4>
    80003534:	0006b583          	ld	a1,0(a3)
    80003538:	ca5fe0ef          	jal	ra,800021dc <debug_printf>
    8000353c:	00000517          	auipc	a0,0x0
    80003540:	68450513          	addi	a0,a0,1668 # 80003bc0 <main+0xc0c>
    80003544:	c99fe0ef          	jal	ra,800021dc <debug_printf>
    80003548:	00093683          	ld	a3,0(s2)
    8000354c:	00000517          	auipc	a0,0x0
    80003550:	5a450513          	addi	a0,a0,1444 # 80003af0 <main+0xb3c>
    80003554:	0086a583          	lw	a1,8(a3)
    80003558:	c85fe0ef          	jal	ra,800021dc <debug_printf>
    8000355c:	00000593          	li	a1,0
    80003560:	00000517          	auipc	a0,0x0
    80003564:	41850513          	addi	a0,a0,1048 # 80003978 <main+0x9c4>
    80003568:	c75fe0ef          	jal	ra,800021dc <debug_printf>
    8000356c:	00093683          	ld	a3,0(s2)
    80003570:	00000517          	auipc	a0,0x0
    80003574:	5a050513          	addi	a0,a0,1440 # 80003b10 <main+0xb5c>
    80003578:	00c6a583          	lw	a1,12(a3)
    8000357c:	c61fe0ef          	jal	ra,800021dc <debug_printf>
    80003580:	00100593          	li	a1,1
    80003584:	00000517          	auipc	a0,0x0
    80003588:	3f450513          	addi	a0,a0,1012 # 80003978 <main+0x9c4>
    8000358c:	c51fe0ef          	jal	ra,800021dc <debug_printf>
    80003590:	00093683          	ld	a3,0(s2)
    80003594:	00000517          	auipc	a0,0x0
    80003598:	59c50513          	addi	a0,a0,1436 # 80003b30 <main+0xb7c>
    8000359c:	0106a583          	lw	a1,16(a3)
    800035a0:	c3dfe0ef          	jal	ra,800021dc <debug_printf>
    800035a4:	01200593          	li	a1,18
    800035a8:	00000517          	auipc	a0,0x0
    800035ac:	3d050513          	addi	a0,a0,976 # 80003978 <main+0x9c4>
    800035b0:	c2dfe0ef          	jal	ra,800021dc <debug_printf>
    800035b4:	00093583          	ld	a1,0(s2)
    800035b8:	00000517          	auipc	a0,0x0
    800035bc:	59850513          	addi	a0,a0,1432 # 80003b50 <main+0xb9c>
    800035c0:	01458593          	addi	a1,a1,20
    800035c4:	c19fe0ef          	jal	ra,800021dc <debug_printf>
    800035c8:	00000517          	auipc	a0,0x0
    800035cc:	5a850513          	addi	a0,a0,1448 # 80003b70 <main+0xbbc>
    800035d0:	c0dfe0ef          	jal	ra,800021dc <debug_printf>
    800035d4:	f4442583          	lw	a1,-188(s0)
    800035d8:	00000517          	auipc	a0,0x0
    800035dc:	62850513          	addi	a0,a0,1576 # 80003c00 <main+0xc4c>
    800035e0:	bfdfe0ef          	jal	ra,800021dc <debug_printf>
    800035e4:	00500593          	li	a1,5
    800035e8:	00000517          	auipc	a0,0x0
    800035ec:	39050513          	addi	a0,a0,912 # 80003978 <main+0x9c4>
    800035f0:	bedfe0ef          	jal	ra,800021dc <debug_printf>
    800035f4:	41ac07bb          	subw	a5,s8,s10
    800035f8:	0037971b          	slliw	a4,a5,0x3
    800035fc:	40f707bb          	subw	a5,a4,a5
    80003600:	416785bb          	subw	a1,a5,s6
    80003604:	00000517          	auipc	a0,0x0
    80003608:	61c50513          	addi	a0,a0,1564 # 80003c20 <main+0xc6c>
    8000360c:	bd1fe0ef          	jal	ra,800021dc <debug_printf>
    80003610:	00d00593          	li	a1,13
    80003614:	00000517          	auipc	a0,0x0
    80003618:	36450513          	addi	a0,a0,868 # 80003978 <main+0x9c4>
    8000361c:	bc1fe0ef          	jal	ra,800021dc <debug_printf>
    80003620:	f4842583          	lw	a1,-184(s0)
    80003624:	00000517          	auipc	a0,0x0
    80003628:	61c50513          	addi	a0,a0,1564 # 80003c40 <main+0xc8c>
    8000362c:	bb1fe0ef          	jal	ra,800021dc <debug_printf>
    80003630:	00700593          	li	a1,7
    80003634:	00000517          	auipc	a0,0x0
    80003638:	34450513          	addi	a0,a0,836 # 80003978 <main+0x9c4>
    8000363c:	ba1fe0ef          	jal	ra,800021dc <debug_printf>
    80003640:	f4c42583          	lw	a1,-180(s0)
    80003644:	00000517          	auipc	a0,0x0
    80003648:	61c50513          	addi	a0,a0,1564 # 80003c60 <main+0xcac>
    8000364c:	b91fe0ef          	jal	ra,800021dc <debug_printf>
    80003650:	00000517          	auipc	a0,0x0
    80003654:	32850513          	addi	a0,a0,808 # 80003978 <main+0x9c4>
    80003658:	00100593          	li	a1,1
    8000365c:	b81fe0ef          	jal	ra,800021dc <debug_printf>
    80003660:	f5040593          	addi	a1,s0,-176
    80003664:	00000517          	auipc	a0,0x0
    80003668:	61c50513          	addi	a0,a0,1564 # 80003c80 <main+0xccc>
    8000366c:	b71fe0ef          	jal	ra,800021dc <debug_printf>
    80003670:	00000517          	auipc	a0,0x0
    80003674:	63050513          	addi	a0,a0,1584 # 80003ca0 <main+0xcec>
    80003678:	b65fe0ef          	jal	ra,800021dc <debug_printf>
    8000367c:	f7040593          	addi	a1,s0,-144
    80003680:	00000517          	auipc	a0,0x0
    80003684:	65850513          	addi	a0,a0,1624 # 80003cd8 <main+0xd24>
    80003688:	b55fe0ef          	jal	ra,800021dc <debug_printf>
    8000368c:	00000517          	auipc	a0,0x0
    80003690:	66c50513          	addi	a0,a0,1644 # 80003cf8 <main+0xd44>
    80003694:	b49fe0ef          	jal	ra,800021dc <debug_printf>
    80003698:	00000517          	auipc	a0,0x0
    8000369c:	3e850513          	addi	a0,a0,1000 # 80003a80 <main+0xacc>
    800036a0:	b3dfe0ef          	jal	ra,800021dc <debug_printf>
    800036a4:	00001797          	auipc	a5,0x1
    800036a8:	90c78793          	addi	a5,a5,-1780 # 80003fb0 <User_Time>
    800036ac:	f3843903          	ld	s2,-200(s0)
    800036b0:	0007b983          	ld	s3,0(a5)
    800036b4:	00090593          	mv	a1,s2
    800036b8:	00098513          	mv	a0,s3
    800036bc:	839ff0ef          	jal	ra,80002ef4 <__divdi3>
    800036c0:	0059179b          	slliw	a5,s2,0x5
    800036c4:	4127873b          	subw	a4,a5,s2
    800036c8:	0067179b          	slliw	a5,a4,0x6
    800036cc:	40e787bb          	subw	a5,a5,a4
    800036d0:	00090693          	mv	a3,s2
    800036d4:	0037979b          	slliw	a5,a5,0x3
    800036d8:	00050913          	mv	s2,a0
    800036dc:	00d7853b          	addw	a0,a5,a3
    800036e0:	00098593          	mv	a1,s3
    800036e4:	00001797          	auipc	a5,0x1
    800036e8:	8d27b223          	sd	s2,-1852(a5) # 80003fa8 <Microseconds>
    800036ec:	0065151b          	slliw	a0,a0,0x6
    800036f0:	805ff0ef          	jal	ra,80002ef4 <__divdi3>
    800036f4:	00050793          	mv	a5,a0
    800036f8:	00090593          	mv	a1,s2
    800036fc:	00000517          	auipc	a0,0x0
    80003700:	63450513          	addi	a0,a0,1588 # 80003d30 <main+0xd7c>
    80003704:	00f4b023          	sd	a5,0(s1)
    80003708:	b54ff0ef          	jal	ra,80002a5c <printf>
    8000370c:	0004b583          	ld	a1,0(s1)
    80003710:	00000517          	auipc	a0,0x0
    80003714:	65850513          	addi	a0,a0,1624 # 80003d68 <main+0xdb4>
    80003718:	b44ff0ef          	jal	ra,80002a5c <printf>
    8000371c:	f3040113          	addi	sp,s0,-208
    80003720:	0c813083          	ld	ra,200(sp)
    80003724:	0c013403          	ld	s0,192(sp)
    80003728:	0b813483          	ld	s1,184(sp)
    8000372c:	0b013903          	ld	s2,176(sp)
    80003730:	0a813983          	ld	s3,168(sp)
    80003734:	0a013a03          	ld	s4,160(sp)
    80003738:	09813a83          	ld	s5,152(sp)
    8000373c:	09013b03          	ld	s6,144(sp)
    80003740:	08813b83          	ld	s7,136(sp)
    80003744:	08013c03          	ld	s8,128(sp)
    80003748:	07813c83          	ld	s9,120(sp)
    8000374c:	07013d03          	ld	s10,112(sp)
    80003750:	06813d83          	ld	s11,104(sp)
    80003754:	00000513          	li	a0,0
    80003758:	0d010113          	addi	sp,sp,208
    8000375c:	00008067          	ret
    80003760:	00300b13          	li	s6,3
    80003764:	b7dff06f          	j	800032e0 <main+0x32c>
    80003768:	00000517          	auipc	a0,0x0
    8000376c:	18050513          	addi	a0,a0,384 # 800038e8 <main+0x934>
    80003770:	aecff0ef          	jal	ra,80002a5c <printf>
    80003774:	f3843783          	ld	a5,-200(s0)
    80003778:	00000517          	auipc	a0,0x0
    8000377c:	30850513          	addi	a0,a0,776 # 80003a80 <main+0xacc>
    80003780:	0027969b          	slliw	a3,a5,0x2
    80003784:	00f686bb          	addw	a3,a3,a5
    80003788:	0016979b          	slliw	a5,a3,0x1
    8000378c:	f2f43c23          	sd	a5,-200(s0)
    80003790:	accff0ef          	jal	ra,80002a5c <printf>
    80003794:	00001797          	auipc	a5,0x1
    80003798:	83478793          	addi	a5,a5,-1996 # 80003fc8 <Done>
    8000379c:	0007a683          	lw	a3,0(a5)
    800037a0:	9a068ee3          	beqz	a3,8000315c <main+0x1a8>
    800037a4:	bc5ff06f          	j	80003368 <main+0x3b4>
    800037a8:	00000517          	auipc	a0,0x0
    800037ac:	0c050513          	addi	a0,a0,192 # 80003868 <main+0x8b4>
    800037b0:	a2dfe0ef          	jal	ra,800021dc <debug_printf>
    800037b4:	949ff06f          	j	800030fc <main+0x148>
    800037b8:	ff010113          	addi	sp,sp,-16
    800037bc:	00000517          	auipc	a0,0x0
    800037c0:	66450513          	addi	a0,a0,1636 # 80003e20 <main+0xe6c>
    800037c4:	00113423          	sd	ra,8(sp)
    800037c8:	9b4ff0ef          	jal	ra,8000297c <printstr>
    800037cc:	00813083          	ld	ra,8(sp)
    800037d0:	fff00513          	li	a0,-1
    800037d4:	01010113          	addi	sp,sp,16
    800037d8:	00008067          	ret
